
jop:     file format elf64-littleaarch64


Disassembly of section .init:

0000000000400220 <_init>:
  400220:	a9bf7bfd 	stp	x29, x30, [sp, #-16]!
  400224:	910003fd 	mov	x29, sp
  400228:	94000037 	bl	400304 <call_weak_fn>
  40022c:	a8c17bfd 	ldp	x29, x30, [sp], #16
  400230:	d65f03c0 	ret

Disassembly of section .plt:

0000000000400240 <.plt>:
  400240:	f00003f0 	adrp	x16, 47f000 <_GLOBAL_OFFSET_TABLE_+0xb8>
  400244:	f9400211 	ldr	x17, [x16]
  400248:	91000210 	add	x16, x16, #0x0
  40024c:	d61f0220 	br	x17
  400250:	f00003f0 	adrp	x16, 47f000 <_GLOBAL_OFFSET_TABLE_+0xb8>
  400254:	f9400611 	ldr	x17, [x16, #8]
  400258:	91002210 	add	x16, x16, #0x8
  40025c:	d61f0220 	br	x17
  400260:	f00003f0 	adrp	x16, 47f000 <_GLOBAL_OFFSET_TABLE_+0xb8>
  400264:	f9400a11 	ldr	x17, [x16, #16]
  400268:	91004210 	add	x16, x16, #0x10
  40026c:	d61f0220 	br	x17

Disassembly of section .text:

0000000000400280 <backtrace_and_maps.constprop.0>:
  400280:	d65f03c0 	ret

0000000000400284 <oom>:
  400284:	a9bf7bfd 	stp	x29, x30, [sp, #-16]!
  400288:	b0000301 	adrp	x1, 461000 <dummy_bucket.12365+0x530>
  40028c:	91288021 	add	x1, x1, #0xa20
  400290:	52800040 	mov	w0, #0x2                   	// #2
  400294:	910003fd 	mov	x29, sp
  400298:	94010066 	bl	440430 <_dl_dprintf>
  40029c:	52800fe0 	mov	w0, #0x7f                  	// #127
  4002a0:	94005d48 	bl	4177c0 <_exit>
  4002a4:	00000000 	.inst	0x00000000 ; undefined

00000000004002a8 <fini>:
  4002a8:	b0000400 	adrp	x0, 481000 <initial+0x40>
  4002ac:	f943f800 	ldr	x0, [x0, #2032]
  4002b0:	14011286 	b	444cc8 <check_free.isra.0>

00000000004002b4 <_start>:
  4002b4:	d280001d 	mov	x29, #0x0                   	// #0
  4002b8:	d280001e 	mov	x30, #0x0                   	// #0
  4002bc:	aa0003e5 	mov	x5, x0
  4002c0:	f94003e1 	ldr	x1, [sp]
  4002c4:	910023e2 	add	x2, sp, #0x8
  4002c8:	910003e6 	mov	x6, sp
  4002cc:	d2e00000 	movz	x0, #0x0, lsl #48
  4002d0:	f2c00000 	movk	x0, #0x0, lsl #32
  4002d4:	f2a00800 	movk	x0, #0x40, lsl #16
  4002d8:	f2808f80 	movk	x0, #0x47c
  4002dc:	d2e00003 	movz	x3, #0x0, lsl #48
  4002e0:	f2c00003 	movk	x3, #0x0, lsl #32
  4002e4:	f2a00803 	movk	x3, #0x40, lsl #16
  4002e8:	f2816903 	movk	x3, #0xb48
  4002ec:	d2e00004 	movz	x4, #0x0, lsl #48
  4002f0:	f2c00004 	movk	x4, #0x0, lsl #32
  4002f4:	f2a00804 	movk	x4, #0x40, lsl #16
  4002f8:	f2818104 	movk	x4, #0xc08
  4002fc:	94000067 	bl	400498 <__libc_start_main>
  400300:	94001400 	bl	405300 <abort>

0000000000400304 <call_weak_fn>:
  400304:	d00003e0 	adrp	x0, 47e000 <__FRAME_END__+0x105ac>
  400308:	f947f000 	ldr	x0, [x0, #4064]
  40030c:	b4000040 	cbz	x0, 400314 <call_weak_fn+0x10>
  400310:	d503201f 	nop
  400314:	d65f03c0 	ret

0000000000400318 <deregister_tm_clones>:
  400318:	90000400 	adrp	x0, 480000 <__progname_full>
  40031c:	91286000 	add	x0, x0, #0xa18
  400320:	90000401 	adrp	x1, 480000 <__progname_full>
  400324:	91286021 	add	x1, x1, #0xa18
  400328:	eb00003f 	cmp	x1, x0
  40032c:	540000a0 	b.eq	400340 <deregister_tm_clones+0x28>  // b.none
  400330:	f0000261 	adrp	x1, 44f000 <_nl_locale_subfreeres+0x1b8>
  400334:	f942cc21 	ldr	x1, [x1, #1432]
  400338:	b4000041 	cbz	x1, 400340 <deregister_tm_clones+0x28>
  40033c:	d61f0020 	br	x1
  400340:	d65f03c0 	ret
  400344:	d503201f 	nop

0000000000400348 <register_tm_clones>:
  400348:	90000400 	adrp	x0, 480000 <__progname_full>
  40034c:	91286000 	add	x0, x0, #0xa18
  400350:	90000401 	adrp	x1, 480000 <__progname_full>
  400354:	91286021 	add	x1, x1, #0xa18
  400358:	cb000021 	sub	x1, x1, x0
  40035c:	9343fc21 	asr	x1, x1, #3
  400360:	8b41fc21 	add	x1, x1, x1, lsr #63
  400364:	9341fc21 	asr	x1, x1, #1
  400368:	b40000a1 	cbz	x1, 40037c <register_tm_clones+0x34>
  40036c:	f0000262 	adrp	x2, 44f000 <_nl_locale_subfreeres+0x1b8>
  400370:	f942d042 	ldr	x2, [x2, #1440]
  400374:	b4000042 	cbz	x2, 40037c <register_tm_clones+0x34>
  400378:	d61f0040 	br	x2
  40037c:	d65f03c0 	ret

0000000000400380 <__do_global_dtors_aux>:
  400380:	a9be7bfd 	stp	x29, x30, [sp, #-32]!
  400384:	910003fd 	mov	x29, sp
  400388:	f9000bf3 	str	x19, [sp, #16]
  40038c:	90000413 	adrp	x19, 480000 <__progname_full>
  400390:	39686260 	ldrb	w0, [x19, #2584]
  400394:	35000140 	cbnz	w0, 4003bc <__do_global_dtors_aux+0x3c>
  400398:	97ffffe0 	bl	400318 <deregister_tm_clones>
  40039c:	f0000260 	adrp	x0, 44f000 <_nl_locale_subfreeres+0x1b8>
  4003a0:	f942d400 	ldr	x0, [x0, #1448]
  4003a4:	b4000080 	cbz	x0, 4003b4 <__do_global_dtors_aux+0x34>
  4003a8:	b0000340 	adrp	x0, 469000 <__elf_set___libc_subfreeres_element_free_mem__>
  4003ac:	91182000 	add	x0, x0, #0x608
  4003b0:	94013740 	bl	44e0b0 <__deregister_frame_info>
  4003b4:	52800020 	mov	w0, #0x1                   	// #1
  4003b8:	39286260 	strb	w0, [x19, #2584]
  4003bc:	f9400bf3 	ldr	x19, [sp, #16]
  4003c0:	a8c27bfd 	ldp	x29, x30, [sp], #32
  4003c4:	d65f03c0 	ret

00000000004003c8 <frame_dummy>:
  4003c8:	f0000260 	adrp	x0, 44f000 <_nl_locale_subfreeres+0x1b8>
  4003cc:	f942d800 	ldr	x0, [x0, #1456]
  4003d0:	b4000140 	cbz	x0, 4003f8 <frame_dummy+0x30>
  4003d4:	a9bf7bfd 	stp	x29, x30, [sp, #-16]!
  4003d8:	90000401 	adrp	x1, 480000 <__progname_full>
  4003dc:	b0000340 	adrp	x0, 469000 <__elf_set___libc_subfreeres_element_free_mem__>
  4003e0:	91288021 	add	x1, x1, #0xa20
  4003e4:	910003fd 	mov	x29, sp
  4003e8:	91182000 	add	x0, x0, #0x608
  4003ec:	94013683 	bl	44ddf8 <__register_frame_info>
  4003f0:	a8c17bfd 	ldp	x29, x30, [sp], #16
  4003f4:	17ffffd5 	b	400348 <register_tm_clones>
  4003f8:	17ffffd4 	b	400348 <register_tm_clones>

00000000004003fc <jop_symbol>:
#include <stdlib.h>

typedef void (*jop_func_t)(); 

void jop_symbol()
{
  4003fc:	a9bf7bfd 	stp	x29, x30, [sp, #-16]!
  400400:	910003fd 	mov	x29, sp
	system("/bin/ls");
  400404:	f0000260 	adrp	x0, 44f000 <_nl_locale_subfreeres+0x1b8>
  400408:	9116e000 	add	x0, x0, #0x5b8
  40040c:	940019bb 	bl	406af8 <__libc_system>
}
  400410:	d503201f 	nop
  400414:	a8c17bfd 	ldp	x29, x30, [sp], #16
  400418:	d65f03c0 	ret

000000000040041c <jop_bad_func>:

void jop_bad_func()
{
  40041c:	a9bc7bfd 	stp	x29, x30, [sp, #-64]!
  400420:	910003fd 	mov	x29, sp
	jop_func_t func = NULL;
  400424:	f9001fbf 	str	xzr, [x29, #56]
	char data[16] = {0}; 
  400428:	a9027fbf 	stp	xzr, xzr, [x29, #32]
	unsigned long long u64 = 0; 
  40042c:	f9000fbf 	str	xzr, [x29, #24]
	int fd = 0; 
  400430:	b90037bf 	str	wzr, [x29, #52]

	fd = open("./jop.data",O_RDONLY); 
  400434:	f0000260 	adrp	x0, 44f000 <_nl_locale_subfreeres+0x1b8>
  400438:	91170000 	add	x0, x0, #0x5c0
  40043c:	52800001 	mov	w1, #0x0                   	// #0
  400440:	94005e68 	bl	417de0 <__libc_open>
  400444:	b90037a0 	str	w0, [x29, #52]
	func = jop_symbol;
  400448:	90000000 	adrp	x0, 400000 <__ehdr_start>
  40044c:	910ff000 	add	x0, x0, #0x3fc
  400450:	f9001fa0 	str	x0, [x29, #56]
	read(fd,&u64,512);
  400454:	910063a0 	add	x0, x29, #0x18
  400458:	d2804002 	mov	x2, #0x200                 	// #512
  40045c:	aa0003e1 	mov	x1, x0
  400460:	b94037a0 	ldr	w0, [x29, #52]
  400464:	94005edd 	bl	417fd8 <__libc_read>
	func();
  400468:	f9401fa0 	ldr	x0, [x29, #56]
  40046c:	d63f0000 	blr	x0
}
  400470:	d503201f 	nop
  400474:	a8c47bfd 	ldp	x29, x30, [sp], #64
  400478:	d65f03c0 	ret

000000000040047c <main>:

int main()
{
  40047c:	a9bf7bfd 	stp	x29, x30, [sp, #-16]!
  400480:	910003fd 	mov	x29, sp
	jop_bad_func();
  400484:	97ffffe6 	bl	40041c <jop_bad_func>
	return 0;
  400488:	52800000 	mov	w0, #0x0                   	// #0
}
  40048c:	a8c17bfd 	ldp	x29, x30, [sp], #16
  400490:	d65f03c0 	ret
  400494:	00000000 	.inst	0x00000000 ; undefined

0000000000400498 <__libc_start_main>:
  400498:	a9aa7bfd 	stp	x29, x30, [sp, #-352]!
  40049c:	f0000267 	adrp	x7, 44f000 <_nl_locale_subfreeres+0x1b8>
  4004a0:	910003fd 	mov	x29, sp
  4004a4:	a90153f3 	stp	x19, x20, [sp, #16]
  4004a8:	aa0303f3 	mov	x19, x3
  4004ac:	a9025bf5 	stp	x21, x22, [sp, #32]
  4004b0:	aa0403f4 	mov	x20, x4
  4004b4:	a9058ba0 	stp	x0, x2, [x29, #88]
  4004b8:	aa0503f5 	mov	x21, x5
  4004bc:	f942ece0 	ldr	x0, [x7, #1496]
  4004c0:	b9006fa1 	str	w1, [x29, #108]
  4004c4:	52800001 	mov	w1, #0x0                   	// #0
  4004c8:	a90363f7 	stp	x23, x24, [sp, #48]
  4004cc:	a9046bf9 	stp	x25, x26, [sp, #64]
  4004d0:	b4000080 	cbz	x0, 4004e0 <__libc_start_main+0x48>
  4004d4:	b9400000 	ldr	w0, [x0]
  4004d8:	7100001f 	cmp	w0, #0x0
  4004dc:	1a9f17e1 	cset	w1, eq  // eq = none
  4004e0:	b9406fa0 	ldr	w0, [x29, #108]
  4004e4:	90000404 	adrp	x4, 480000 <__progname_full>
  4004e8:	f94033a5 	ldr	x5, [x29, #96]
  4004ec:	b0000403 	adrp	x3, 481000 <initial+0x40>
  4004f0:	d00003e2 	adrp	x2, 47e000 <__FRAME_END__+0x105ac>
  4004f4:	b905e881 	str	w1, [x4, #1512]
  4004f8:	8b20cca0 	add	x0, x5, w0, sxtw #3
  4004fc:	f9077c46 	str	x6, [x2, #3832]
  400500:	91002000 	add	x0, x0, #0x8
  400504:	f902e060 	str	x0, [x3, #1472]
  400508:	f8408401 	ldr	x1, [x0], #8
  40050c:	b5ffffe1 	cbnz	x1, 400508 <__libc_start_main+0x70>
  400510:	94006918 	bl	41a970 <_dl_aux_init>
  400514:	d0000401 	adrp	x1, 482000 <_dl_sysinfo_map>
  400518:	f0000260 	adrp	x0, 44f000 <_nl_locale_subfreeres+0x1b8>
  40051c:	f9400822 	ldr	x2, [x1, #16]
  400520:	f942f000 	ldr	x0, [x0, #1504]
  400524:	f100005f 	cmp	x2, #0x0
  400528:	fa400804 	ccmp	x0, #0x0, #0x4, eq  // eq = none
  40052c:	54000f61 	b.ne	400718 <__libc_start_main+0x280>  // b.any
  400530:	94006be6 	bl	41b4c8 <__libc_init_secure>
  400534:	b0000400 	adrp	x0, 481000 <initial+0x40>
  400538:	f942e000 	ldr	x0, [x0, #1472]
  40053c:	940067cb 	bl	41a468 <__tunables_init>
  400540:	d2800002 	mov	x2, #0x0                   	// #0
  400544:	9101e3a1 	add	x1, x29, #0x78
  400548:	52800180 	mov	w0, #0xc                   	// #12
  40054c:	940068ed 	bl	41a900 <__tunable_get_val>
  400550:	b0000400 	adrp	x0, 481000 <initial+0x40>
  400554:	f9403fa4 	ldr	x4, [x29, #120]
  400558:	d2800002 	mov	x2, #0x0                   	// #0
  40055c:	910203a1 	add	x1, x29, #0x80
  400560:	f942f003 	ldr	x3, [x0, #1504]
  400564:	528000e0 	mov	w0, #0x7                   	// #7
  400568:	8a030097 	and	x23, x4, x3
  40056c:	940068e5 	bl	41a900 <__tunable_get_val>
  400570:	f94043b6 	ldr	x22, [x29, #128]
  400574:	b4000196 	cbz	x22, 4005a4 <__libc_start_main+0x10c>
  400578:	f0000279 	adrp	x25, 44f000 <_nl_locale_subfreeres+0x1b8>
  40057c:	91180339 	add	x25, x25, #0x600
  400580:	d2800018 	mov	x24, #0x0                   	// #0
  400584:	d37cef01 	lsl	x1, x24, #4
  400588:	aa1603e0 	mov	x0, x22
  40058c:	f8796821 	ldr	x1, [x1, x25]
  400590:	940051cc 	bl	414cc0 <strcmp>
  400594:	34001080 	cbz	w0, 4007a4 <__libc_start_main+0x30c>
  400598:	91000718 	add	x24, x24, #0x1
  40059c:	f100171f 	cmp	x24, #0x5
  4005a0:	54ffff21 	b.ne	400584 <__libc_start_main+0xec>  // b.any
  4005a4:	927502e0 	and	x0, x23, #0x800
  4005a8:	36580057 	tbz	w23, #11, 4005b0 <__libc_start_main+0x118>
  4005ac:	d5380000 	mrs	x0, midr_el1
  4005b0:	b0000401 	adrp	x1, 481000 <initial+0x40>
  4005b4:	9117a022 	add	x2, x1, #0x5e8
  4005b8:	f902f420 	str	x0, [x1, #1512]
  4005bc:	d53b00e0 	mrs	x0, dczid_el0
  4005c0:	372000a0 	tbnz	w0, #4, 4005d4 <__libc_start_main+0x13c>
  4005c4:	12000c00 	and	w0, w0, #0xf
  4005c8:	52800081 	mov	w1, #0x4                   	// #4
  4005cc:	1ac02020 	lsl	w0, w1, w0
  4005d0:	b9000840 	str	w0, [x2, #8]
  4005d4:	f0000261 	adrp	x1, 44f000 <_nl_locale_subfreeres+0x1b8>
  4005d8:	f0000260 	adrp	x0, 44f000 <_nl_locale_subfreeres+0x1b8>
  4005dc:	b0000419 	adrp	x25, 481000 <initial+0x40>
  4005e0:	f942e836 	ldr	x22, [x1, #1488]
  4005e4:	f942f418 	ldr	x24, [x0, #1512]
  4005e8:	1400000a 	b	400610 <__libc_start_main+0x178>
  4005ec:	b9400ac0 	ldr	w0, [x22, #8]
  4005f0:	f94002d7 	ldr	x23, [x22]
  4005f4:	f110201f 	cmp	x0, #0x408
  4005f8:	54000d01 	b.ne	400798 <__libc_start_main+0x300>  // b.any
  4005fc:	f9400ac1 	ldr	x1, [x22, #16]
  400600:	910062d6 	add	x22, x22, #0x18
  400604:	f942f320 	ldr	x0, [x25, #1504]
  400608:	d63f0020 	blr	x1
  40060c:	f90002e0 	str	x0, [x23]
  400610:	eb1802df 	cmp	x22, x24
  400614:	54fffec3 	b.cc	4005ec <__libc_start_main+0x154>  // b.lo, b.ul, b.last
  400618:	940000bc 	bl	400908 <__libc_setup_tls>
  40061c:	d00003e0 	adrp	x0, 47e000 <__FRAME_END__+0x105ac>
  400620:	90000401 	adrp	x1, 480000 <__progname_full>
  400624:	d00003e2 	adrp	x2, 47e000 <__FRAME_END__+0x105ac>
  400628:	f9473800 	ldr	x0, [x0, #3696]
  40062c:	b945e821 	ldr	w1, [x1, #1512]
  400630:	f9400000 	ldr	x0, [x0]
  400634:	9278dc00 	and	x0, x0, #0xffffffffffffff00
  400638:	f9051c40 	str	x0, [x2, #2616]
  40063c:	34000c21 	cbz	w1, 4007c0 <__libc_start_main+0x328>
  400640:	f0000260 	adrp	x0, 44f000 <_nl_locale_subfreeres+0x1b8>
  400644:	f942f800 	ldr	x0, [x0, #1520]
  400648:	b4000040 	cbz	x0, 400650 <__libc_start_main+0x1b8>
  40064c:	d503201f 	nop
  400650:	d00003e1 	adrp	x1, 47e000 <__FRAME_END__+0x105ac>
  400654:	d00003e0 	adrp	x0, 47e000 <__FRAME_END__+0x105ac>
  400658:	f9473821 	ldr	x1, [x1, #3696]
  40065c:	f9400421 	ldr	x1, [x1, #8]
  400660:	f9052001 	str	x1, [x0, #2624]
  400664:	b40000b5 	cbz	x21, 400678 <__libc_start_main+0x1e0>
  400668:	d2800002 	mov	x2, #0x0                   	// #0
  40066c:	d2800001 	mov	x1, #0x0                   	// #0
  400670:	aa1503e0 	mov	x0, x21
  400674:	940016a5 	bl	406108 <__cxa_atexit>
  400678:	b0000402 	adrp	x2, 481000 <initial+0x40>
  40067c:	b9406fa0 	ldr	w0, [x29, #108]
  400680:	f94033a1 	ldr	x1, [x29, #96]
  400684:	f942e042 	ldr	x2, [x2, #1472]
  400688:	94006c06 	bl	41b6a0 <__libc_init_first>
  40068c:	b40000b4 	cbz	x20, 4006a0 <__libc_start_main+0x208>
  400690:	d2800002 	mov	x2, #0x0                   	// #0
  400694:	d2800001 	mov	x1, #0x0                   	// #0
  400698:	aa1403e0 	mov	x0, x20
  40069c:	9400169b 	bl	406108 <__cxa_atexit>
  4006a0:	d00003e0 	adrp	x0, 47e000 <__FRAME_END__+0x105ac>
  4006a4:	b94f0000 	ldr	w0, [x0, #3840]
  4006a8:	34000040 	cbz	w0, 4006b0 <__libc_start_main+0x218>
  4006ac:	9400008b 	bl	4008d8 <__libc_check_standard_fds>
  4006b0:	b40000d3 	cbz	x19, 4006c8 <__libc_start_main+0x230>
  4006b4:	b0000402 	adrp	x2, 481000 <initial+0x40>
  4006b8:	b9406fa0 	ldr	w0, [x29, #108]
  4006bc:	f94033a1 	ldr	x1, [x29, #96]
  4006c0:	f942e042 	ldr	x2, [x2, #1472]
  4006c4:	d63f0260 	blr	x19
  4006c8:	d2800001 	mov	x1, #0x0                   	// #0
  4006cc:	d2800000 	mov	x0, #0x0                   	// #0
  4006d0:	940066fe 	bl	41a2c8 <_dl_debug_initialize>
  4006d4:	910223a0 	add	x0, x29, #0x88
  4006d8:	9400126a 	bl	405080 <_setjmp>
  4006dc:	35000420 	cbnz	w0, 400760 <__libc_start_main+0x2c8>
  4006e0:	d53bd043 	mrs	x3, tpidr_el0
  4006e4:	b0000400 	adrp	x0, 481000 <initial+0x40>
  4006e8:	d11bc063 	sub	x3, x3, #0x6f0
  4006ec:	910223a5 	add	x5, x29, #0x88
  4006f0:	f942e002 	ldr	x2, [x0, #1472]
  4006f4:	f94033a1 	ldr	x1, [x29, #96]
  4006f8:	f9408064 	ldr	x4, [x3, #256]
  4006fc:	f9008065 	str	x5, [x3, #256]
  400700:	f9407c63 	ldr	x3, [x3, #248]
  400704:	a9140fa4 	stp	x4, x3, [x29, #320]
  400708:	b9406fa0 	ldr	w0, [x29, #108]
  40070c:	f9402fa3 	ldr	x3, [x29, #88]
  400710:	d63f0060 	blr	x3
  400714:	940015eb 	bl	405ec0 <exit>
  400718:	79406c02 	ldrh	w2, [x0, #54]
  40071c:	7100e05f 	cmp	w2, #0x38
  400720:	54000120 	b.eq	400744 <__libc_start_main+0x2ac>  // b.none
  400724:	f0000263 	adrp	x3, 44f000 <_nl_locale_subfreeres+0x1b8>
  400728:	f0000261 	adrp	x1, 44f000 <_nl_locale_subfreeres+0x1b8>
  40072c:	f0000260 	adrp	x0, 44f000 <_nl_locale_subfreeres+0x1b8>
  400730:	911c0063 	add	x3, x3, #0x700
  400734:	52801682 	mov	w2, #0xb4                  	// #180
  400738:	91194021 	add	x1, x1, #0x650
  40073c:	9119a000 	add	x0, x0, #0x668
  400740:	940001a4 	bl	400dd0 <__assert_fail>
  400744:	d0000403 	adrp	x3, 482000 <_dl_sysinfo_map>
  400748:	f9401002 	ldr	x2, [x0, #32]
  40074c:	79407004 	ldrh	w4, [x0, #56]
  400750:	f9002464 	str	x4, [x3, #72]
  400754:	8b000040 	add	x0, x2, x0
  400758:	f9000820 	str	x0, [x1, #16]
  40075c:	17ffff75 	b	400530 <__libc_start_main+0x98>
  400760:	d503201f 	nop
  400764:	f0000260 	adrp	x0, 44f000 <_nl_locale_subfreeres+0x1b8>
  400768:	f942fc00 	ldr	x0, [x0, #1528]
  40076c:	885ffc01 	ldaxr	w1, [x0]
  400770:	51000422 	sub	w2, w1, #0x1
  400774:	88037c02 	stxr	w3, w2, [x0]
  400778:	35ffffa3 	cbnz	w3, 40076c <__libc_start_main+0x2d4>
  40077c:	7100043f 	cmp	w1, #0x1
  400780:	540001c0 	b.eq	4007b8 <__libc_start_main+0x320>  // b.none
  400784:	d2800ba1 	mov	x1, #0x5d                  	// #93
  400788:	d2800000 	mov	x0, #0x0                   	// #0
  40078c:	aa0103e8 	mov	x8, x1
  400790:	d4000001 	svc	#0x0
  400794:	17fffffd 	b	400788 <__libc_start_main+0x2f0>
  400798:	f0000260 	adrp	x0, 44f000 <_nl_locale_subfreeres+0x1b8>
  40079c:	911a6000 	add	x0, x0, #0x698
  4007a0:	94002396 	bl	4095f8 <__libc_fatal>
  4007a4:	8b38d339 	add	x25, x25, w24, sxtw #4
  4007a8:	f9400720 	ldr	x0, [x25, #8]
  4007ac:	b100041f 	cmn	x0, #0x1
  4007b0:	54fff001 	b.ne	4005b0 <__libc_start_main+0x118>  // b.any
  4007b4:	17ffff7c 	b	4005a4 <__libc_start_main+0x10c>
  4007b8:	52800000 	mov	w0, #0x0                   	// #0
  4007bc:	940015c1 	bl	405ec0 <exit>
  4007c0:	94006b6c 	bl	41b570 <_dl_discover_osversion>
  4007c4:	37f801a0 	tbnz	w0, #31, 4007f8 <__libc_start_main+0x360>
  4007c8:	d0000401 	adrp	x1, 482000 <_dl_sysinfo_map>
  4007cc:	b9406821 	ldr	w1, [x1, #104]
  4007d0:	350001a1 	cbnz	w1, 400804 <__libc_start_main+0x36c>
  4007d4:	d0000401 	adrp	x1, 482000 <_dl_sysinfo_map>
  4007d8:	b9006820 	str	w0, [x1, #104]
  4007dc:	5280dfe1 	mov	w1, #0x6ff                 	// #1791
  4007e0:	72a00061 	movk	w1, #0x3, lsl #16
  4007e4:	6b01001f 	cmp	w0, w1
  4007e8:	54fff2cc 	b.gt	400640 <__libc_start_main+0x1a8>
  4007ec:	f0000260 	adrp	x0, 44f000 <_nl_locale_subfreeres+0x1b8>
  4007f0:	911b0000 	add	x0, x0, #0x6c0
  4007f4:	94002381 	bl	4095f8 <__libc_fatal>
  4007f8:	f0000260 	adrp	x0, 44f000 <_nl_locale_subfreeres+0x1b8>
  4007fc:	911b6000 	add	x0, x0, #0x6d8
  400800:	9400237e 	bl	4095f8 <__libc_fatal>
  400804:	6b00003f 	cmp	w1, w0
  400808:	54fffea9 	b.ls	4007dc <__libc_start_main+0x344>  // b.plast
  40080c:	17fffff2 	b	4007d4 <__libc_start_main+0x33c>

0000000000400810 <check_one_fd>:
  400810:	a9b57bfd 	stp	x29, x30, [sp, #-176]!
  400814:	910003fd 	mov	x29, sp
  400818:	a90153f3 	stp	x19, x20, [sp, #16]
  40081c:	2a0003f3 	mov	w19, w0
  400820:	2a0103f4 	mov	w20, w1
  400824:	52800021 	mov	w1, #0x1                   	// #1
  400828:	94005eae 	bl	4182e0 <__libc_fcntl>
  40082c:	3100041f 	cmn	w0, #0x1
  400830:	54000080 	b.eq	400840 <check_one_fd+0x30>  // b.none
  400834:	a94153f3 	ldp	x19, x20, [sp, #16]
  400838:	a8cb7bfd 	ldp	x29, x30, [sp], #176
  40083c:	d65f03c0 	ret
  400840:	d00003e0 	adrp	x0, 47e000 <__FRAME_END__+0x105ac>
  400844:	f947c800 	ldr	x0, [x0, #3984]
  400848:	d53bd041 	mrs	x1, tpidr_el0
  40084c:	b8606820 	ldr	w0, [x1, x0]
  400850:	7100241f 	cmp	w0, #0x9
  400854:	54ffff01 	b.ne	400834 <check_one_fd+0x24>  // b.any
  400858:	f90013b5 	str	x21, [x29, #32]
  40085c:	7140229f 	cmp	w20, #0x8, lsl #12
  400860:	54000301 	b.ne	4008c0 <check_one_fd+0xb0>  // b.any
  400864:	f0000260 	adrp	x0, 44f000 <_nl_locale_subfreeres+0x1b8>
  400868:	911da000 	add	x0, x0, #0x768
  40086c:	d2802075 	mov	x21, #0x103                 	// #259
  400870:	52800002 	mov	w2, #0x0                   	// #0
  400874:	2a1403e1 	mov	w1, w20
  400878:	94005da6 	bl	417f10 <__open64_nocancel>
  40087c:	6b00027f 	cmp	w19, w0
  400880:	540001a1 	b.ne	4008b4 <check_one_fd+0xa4>  // b.any
  400884:	9100c3a2 	add	x2, x29, #0x30
  400888:	2a1303e1 	mov	w1, w19
  40088c:	52800000 	mov	w0, #0x0                   	// #0
  400890:	94005d3e 	bl	417d88 <__fxstat>
  400894:	35000100 	cbnz	w0, 4008b4 <check_one_fd+0xa4>
  400898:	b94043a0 	ldr	w0, [x29, #64]
  40089c:	12140c00 	and	w0, w0, #0xf000
  4008a0:	7140081f 	cmp	w0, #0x2, lsl #12
  4008a4:	54000081 	b.ne	4008b4 <check_one_fd+0xa4>  // b.any
  4008a8:	f9402ba0 	ldr	x0, [x29, #80]
  4008ac:	eb15001f 	cmp	x0, x21
  4008b0:	54000100 	b.eq	4008d0 <check_one_fd+0xc0>  // b.none
  4008b4:	d4207d00 	brk	#0x3e8
  4008b8:	d4207d00 	brk	#0x3e8
  4008bc:	17fffffe 	b	4008b4 <check_one_fd+0xa4>
  4008c0:	f0000260 	adrp	x0, 44f000 <_nl_locale_subfreeres+0x1b8>
  4008c4:	d28020f5 	mov	x21, #0x107                 	// #263
  4008c8:	911d6000 	add	x0, x0, #0x758
  4008cc:	17ffffe9 	b	400870 <check_one_fd+0x60>
  4008d0:	f94013b5 	ldr	x21, [x29, #32]
  4008d4:	17ffffd8 	b	400834 <check_one_fd+0x24>

00000000004008d8 <__libc_check_standard_fds>:
  4008d8:	a9bf7bfd 	stp	x29, x30, [sp, #-16]!
  4008dc:	52900021 	mov	w1, #0x8001                	// #32769
  4008e0:	52800000 	mov	w0, #0x0                   	// #0
  4008e4:	910003fd 	mov	x29, sp
  4008e8:	97ffffca 	bl	400810 <check_one_fd>
  4008ec:	52900001 	mov	w1, #0x8000                	// #32768
  4008f0:	52800020 	mov	w0, #0x1                   	// #1
  4008f4:	97ffffc7 	bl	400810 <check_one_fd>
  4008f8:	a8c17bfd 	ldp	x29, x30, [sp], #16
  4008fc:	52900001 	mov	w1, #0x8000                	// #32768
  400900:	52800040 	mov	w0, #0x2                   	// #2
  400904:	17ffffc3 	b	400810 <check_one_fd>

0000000000400908 <__libc_setup_tls>:
  400908:	a9b87bfd 	stp	x29, x30, [sp, #-128]!
  40090c:	d0000400 	adrp	x0, 482000 <_dl_sysinfo_map>
  400910:	90000401 	adrp	x1, 480000 <__progname_full>
  400914:	910003fd 	mov	x29, sp
  400918:	f9400800 	ldr	x0, [x0, #16]
  40091c:	a90153f3 	stp	x19, x20, [sp, #16]
  400920:	a9025bf5 	stp	x21, x22, [sp, #32]
  400924:	a90363f7 	stp	x23, x24, [sp, #48]
  400928:	a9046bf9 	stp	x25, x26, [sp, #64]
  40092c:	a90573fb 	stp	x27, x28, [sp, #80]
  400930:	f9429035 	ldr	x21, [x1, #1312]
  400934:	b4000480 	cbz	x0, 4009c4 <__libc_setup_tls+0xbc>
  400938:	d0000401 	adrp	x1, 482000 <_dl_sysinfo_map>
  40093c:	f9402422 	ldr	x2, [x1, #72]
  400940:	d37df041 	lsl	x1, x2, #3
  400944:	cb020021 	sub	x1, x1, x2
  400948:	8b010c01 	add	x1, x0, x1, lsl #3
  40094c:	eb01001f 	cmp	x0, x1
  400950:	540000a3 	b.cc	400964 <__libc_setup_tls+0x5c>  // b.lo, b.ul, b.last
  400954:	1400001c 	b	4009c4 <__libc_setup_tls+0xbc>
  400958:	9100e000 	add	x0, x0, #0x38
  40095c:	eb01001f 	cmp	x0, x1
  400960:	54000322 	b.cs	4009c4 <__libc_setup_tls+0xbc>  // b.hs, b.nlast
  400964:	b9400002 	ldr	w2, [x0]
  400968:	71001c5f 	cmp	w2, #0x7
  40096c:	54ffff61 	b.ne	400958 <__libc_setup_tls+0x50>  // b.any
  400970:	f9400801 	ldr	x1, [x0, #16]
  400974:	f940181a 	ldr	x26, [x0, #48]
  400978:	f94002b9 	ldr	x25, [x21]
  40097c:	a9424c17 	ldp	x23, x19, [x0, #32]
  400980:	f100435f 	cmp	x26, #0x10
  400984:	8b010339 	add	x25, x25, x1
  400988:	54000b68 	b.hi	400af4 <__libc_setup_tls+0x1ec>  // b.pmore
  40098c:	91004261 	add	x1, x19, #0x10
  400990:	b4000c1a 	cbz	x26, 400b10 <__libc_setup_tls+0x208>
  400994:	d28001e0 	mov	x0, #0xf                   	// #15
  400998:	f9003ba0 	str	x0, [x29, #112]
  40099c:	928001e0 	mov	x0, #0xfffffffffffffff0    	// #-16
  4009a0:	f9003fa0 	str	x0, [x29, #120]
  4009a4:	d2800200 	mov	x0, #0x10                  	// #16
  4009a8:	f90037a0 	str	x0, [x29, #104]
  4009ac:	91003f54 	add	x20, x26, #0xf
  4009b0:	aa1a03fb 	mov	x27, x26
  4009b4:	9ada0a94 	udiv	x20, x20, x26
  4009b8:	9b1a7e94 	mul	x20, x20, x26
  4009bc:	aa1403fc 	mov	x28, x20
  4009c0:	1400000d 	b	4009f4 <__libc_setup_tls+0xec>
  4009c4:	d2800214 	mov	x20, #0x10                  	// #16
  4009c8:	d28001e0 	mov	x0, #0xf                   	// #15
  4009cc:	aa1403e1 	mov	x1, x20
  4009d0:	aa1403fc 	mov	x28, x20
  4009d4:	a90683b4 	stp	x20, x0, [x29, #104]
  4009d8:	d280001a 	mov	x26, #0x0                   	// #0
  4009dc:	928001e0 	mov	x0, #0xfffffffffffffff0    	// #-16
  4009e0:	d2800019 	mov	x25, #0x0                   	// #0
  4009e4:	d2800017 	mov	x23, #0x0                   	// #0
  4009e8:	d2800013 	mov	x19, #0x0                   	// #0
  4009ec:	d280003b 	mov	x27, #0x1                   	// #1
  4009f0:	f9003fa0 	str	x0, [x29, #120]
  4009f4:	f00003f6 	adrp	x22, 47f000 <_GLOBAL_OFFSET_TABLE_+0xb8>
  4009f8:	8b140021 	add	x1, x1, x20
  4009fc:	f94016c0 	ldr	x0, [x22, #40]
  400a00:	911bc000 	add	x0, x0, #0x6f0
  400a04:	8b010000 	add	x0, x0, x1
  400a08:	94006090 	bl	418c48 <__sbrk>
  400a0c:	911bc018 	add	x24, x0, #0x6f0
  400a10:	f9403ba0 	ldr	x0, [x29, #112]
  400a14:	b0000402 	adrp	x2, 481000 <initial+0x40>
  400a18:	912d2041 	add	x1, x2, #0xb48
  400a1c:	8b000318 	add	x24, x24, x0
  400a20:	f9403fa0 	ldr	x0, [x29, #120]
  400a24:	d28007c5 	mov	x5, #0x3e                  	// #62
  400a28:	f9021ebc 	str	x28, [x21, #1080]
  400a2c:	8a000318 	and	x24, x24, x0
  400a30:	f905a445 	str	x5, [x2, #2888]
  400a34:	8b140300 	add	x0, x24, x20
  400a38:	a9027c20 	stp	x0, xzr, [x1, #32]
  400a3c:	aa1703e2 	mov	x2, x23
  400a40:	aa1903e1 	mov	x1, x25
  400a44:	97fffe03 	bl	400250 <.plt+0x10>
  400a48:	b0000400 	adrp	x0, 481000 <initial+0x40>
  400a4c:	912d6000 	add	x0, x0, #0xb58
  400a50:	f9000300 	str	x0, [x24]
  400a54:	d51bd058 	msr	tpidr_el0, x24
  400a58:	90000405 	adrp	x5, 480000 <__progname_full>
  400a5c:	912940a2 	add	x2, x5, #0xa50
  400a60:	b0000409 	adrp	x9, 481000 <initial+0x40>
  400a64:	b000040a 	adrp	x10, 481000 <initial+0x40>
  400a68:	b0000406 	adrp	x6, 481000 <initial+0x40>
  400a6c:	8b1a0260 	add	x0, x19, x26
  400a70:	f9001455 	str	x21, [x2, #40]
  400a74:	d2800021 	mov	x1, #0x1                   	// #1
  400a78:	f907a522 	str	x2, [x9, #3912]
  400a7c:	911002a2 	add	x2, x21, #0x400
  400a80:	f905a141 	str	x1, [x10, #2880]
  400a84:	f100035f 	cmp	x26, #0x0
  400a88:	f907b0c1 	str	x1, [x6, #3936]
  400a8c:	d1000400 	sub	x0, x0, #0x1
  400a90:	d280080b 	mov	x11, #0x40                  	// #64
  400a94:	f90528ab 	str	x11, [x5, #2640]
  400a98:	a9026853 	stp	x19, x26, [x2, #32]
  400a9c:	9a931013 	csel	x19, x0, x19, ne  // ne = any
  400aa0:	a9015c59 	stp	x25, x23, [x2, #16]
  400aa4:	b0000408 	adrp	x8, 481000 <initial+0x40>
  400aa8:	b0000407 	adrp	x7, 481000 <initial+0x40>
  400aac:	f90222a1 	str	x1, [x21, #1088]
  400ab0:	9adb0a73 	udiv	x19, x19, x27
  400ab4:	f94016c0 	ldr	x0, [x22, #40]
  400ab8:	a94363f7 	ldp	x23, x24, [sp, #48]
  400abc:	91003c00 	add	x0, x0, #0xf
  400ac0:	a9446bf9 	ldp	x25, x26, [sp, #64]
  400ac4:	9b1b5273 	madd	x19, x19, x27, x20
  400ac8:	f9059913 	str	x19, [x8, #2864]
  400acc:	8b130000 	add	x0, x0, x19
  400ad0:	927cec00 	and	x0, x0, #0xfffffffffffffff0
  400ad4:	f90016c0 	str	x0, [x22, #40]
  400ad8:	f94037a0 	ldr	x0, [x29, #104]
  400adc:	f9059ce0 	str	x0, [x7, #2872]
  400ae0:	a94153f3 	ldp	x19, x20, [sp, #16]
  400ae4:	a9425bf5 	ldp	x21, x22, [sp, #32]
  400ae8:	a94573fb 	ldp	x27, x28, [sp, #80]
  400aec:	a8c87bfd 	ldp	x29, x30, [sp], #128
  400af0:	d65f03c0 	ret
  400af4:	cb1a03e0 	neg	x0, x26
  400af8:	8b1a0261 	add	x1, x19, x26
  400afc:	f90037ba 	str	x26, [x29, #104]
  400b00:	f9003fa0 	str	x0, [x29, #120]
  400b04:	d1000740 	sub	x0, x26, #0x1
  400b08:	f9003ba0 	str	x0, [x29, #112]
  400b0c:	17ffffa8 	b	4009ac <__libc_setup_tls+0xa4>
  400b10:	d28001e0 	mov	x0, #0xf                   	// #15
  400b14:	d2800214 	mov	x20, #0x10                  	// #16
  400b18:	d280003b 	mov	x27, #0x1                   	// #1
  400b1c:	a90683b4 	stp	x20, x0, [x29, #104]
  400b20:	aa1403fc 	mov	x28, x20
  400b24:	928001e0 	mov	x0, #0xfffffffffffffff0    	// #-16
  400b28:	f9003fa0 	str	x0, [x29, #120]
  400b2c:	17ffffb2 	b	4009f4 <__libc_setup_tls+0xec>

0000000000400b30 <__tls_get_addr>:
  400b30:	d53bd041 	mrs	x1, tpidr_el0
  400b34:	f9400400 	ldr	x0, [x0, #8]
  400b38:	f9400021 	ldr	x1, [x1]
  400b3c:	f9400821 	ldr	x1, [x1, #16]
  400b40:	8b000020 	add	x0, x1, x0
  400b44:	d65f03c0 	ret

0000000000400b48 <__libc_csu_init>:
  400b48:	a9bc7bfd 	stp	x29, x30, [sp, #-64]!
  400b4c:	910003fd 	mov	x29, sp
  400b50:	a90153f3 	stp	x19, x20, [sp, #16]
  400b54:	d00003f4 	adrp	x20, 47e000 <__FRAME_END__+0x105ac>
  400b58:	a90363f7 	stp	x23, x24, [sp, #48]
  400b5c:	91288294 	add	x20, x20, #0xa20
  400b60:	d00003f8 	adrp	x24, 47e000 <__FRAME_END__+0x105ac>
  400b64:	91288318 	add	x24, x24, #0xa20
  400b68:	a9025bf5 	stp	x21, x22, [sp, #32]
  400b6c:	cb180294 	sub	x20, x20, x24
  400b70:	2a0003f5 	mov	w21, w0
  400b74:	aa0103f6 	mov	x22, x1
  400b78:	aa0203f7 	mov	x23, x2
  400b7c:	9343fe94 	asr	x20, x20, #3
  400b80:	b4000154 	cbz	x20, 400ba8 <__libc_csu_init+0x60>
  400b84:	d2800013 	mov	x19, #0x0                   	// #0
  400b88:	f8737b03 	ldr	x3, [x24, x19, lsl #3]
  400b8c:	aa1703e2 	mov	x2, x23
  400b90:	aa1603e1 	mov	x1, x22
  400b94:	2a1503e0 	mov	w0, w21
  400b98:	91000673 	add	x19, x19, #0x1
  400b9c:	d63f0060 	blr	x3
  400ba0:	eb13029f 	cmp	x20, x19
  400ba4:	54ffff21 	b.ne	400b88 <__libc_csu_init+0x40>  // b.any
  400ba8:	d00003f4 	adrp	x20, 47e000 <__FRAME_END__+0x105ac>
  400bac:	d00003f8 	adrp	x24, 47e000 <__FRAME_END__+0x105ac>
  400bb0:	9128a294 	add	x20, x20, #0xa28
  400bb4:	91288318 	add	x24, x24, #0xa20
  400bb8:	cb180294 	sub	x20, x20, x24
  400bbc:	97fffd99 	bl	400220 <__rela_iplt_end>
  400bc0:	9343fe94 	asr	x20, x20, #3
  400bc4:	b4000174 	cbz	x20, 400bf0 <__libc_csu_init+0xa8>
  400bc8:	d2800013 	mov	x19, #0x0                   	// #0
  400bcc:	d503201f 	nop
  400bd0:	f8737b03 	ldr	x3, [x24, x19, lsl #3]
  400bd4:	aa1703e2 	mov	x2, x23
  400bd8:	aa1603e1 	mov	x1, x22
  400bdc:	2a1503e0 	mov	w0, w21
  400be0:	91000673 	add	x19, x19, #0x1
  400be4:	d63f0060 	blr	x3
  400be8:	eb13029f 	cmp	x20, x19
  400bec:	54ffff21 	b.ne	400bd0 <__libc_csu_init+0x88>  // b.any
  400bf0:	a94153f3 	ldp	x19, x20, [sp, #16]
  400bf4:	a9425bf5 	ldp	x21, x22, [sp, #32]
  400bf8:	a94363f7 	ldp	x23, x24, [sp, #48]
  400bfc:	a8c47bfd 	ldp	x29, x30, [sp], #64
  400c00:	d65f03c0 	ret
  400c04:	d503201f 	nop

0000000000400c08 <__libc_csu_fini>:
  400c08:	a9be7bfd 	stp	x29, x30, [sp, #-32]!
  400c0c:	d00003e0 	adrp	x0, 47e000 <__FRAME_END__+0x105ac>
  400c10:	9128e000 	add	x0, x0, #0xa38
  400c14:	910003fd 	mov	x29, sp
  400c18:	f9000ff4 	str	x20, [sp, #24]
  400c1c:	d00003f4 	adrp	x20, 47e000 <__FRAME_END__+0x105ac>
  400c20:	9128a294 	add	x20, x20, #0xa28
  400c24:	cb140000 	sub	x0, x0, x20
  400c28:	9343fc00 	asr	x0, x0, #3
  400c2c:	b4000120 	cbz	x0, 400c50 <__libc_csu_fini+0x48>
  400c30:	f9000bb3 	str	x19, [x29, #16]
  400c34:	d1000413 	sub	x19, x0, #0x1
  400c38:	f8737a80 	ldr	x0, [x20, x19, lsl #3]
  400c3c:	d1000673 	sub	x19, x19, #0x1
  400c40:	d63f0000 	blr	x0
  400c44:	b100067f 	cmn	x19, #0x1
  400c48:	54ffff81 	b.ne	400c38 <__libc_csu_fini+0x30>  // b.any
  400c4c:	f9400bb3 	ldr	x19, [x29, #16]
  400c50:	f9400ff4 	ldr	x20, [sp, #24]
  400c54:	a8c27bfd 	ldp	x29, x30, [sp], #32
  400c58:	14013a48 	b	44f578 <_fini>
  400c5c:	00000000 	.inst	0x00000000 ; undefined

0000000000400c60 <__assert_fail_base>:
  400c60:	d101c3ff 	sub	sp, sp, #0x70
  400c64:	f0000266 	adrp	x6, 44f000 <_nl_locale_subfreeres+0x1b8>
  400c68:	d00003e5 	adrp	x5, 47e000 <__FRAME_END__+0x105ac>
  400c6c:	9128e0a5 	add	x5, x5, #0xa38
  400c70:	a9017bfd 	stp	x29, x30, [sp, #16]
  400c74:	910043fd 	add	x29, sp, #0x10
  400c78:	a90253f3 	stp	x19, x20, [sp, #32]
  400c7c:	aa0003f4 	mov	x20, x0
  400c80:	f943bcc0 	ldr	x0, [x6, #1912]
  400c84:	f94000a6 	ldr	x6, [x5]
  400c88:	f9002fa6 	str	x6, [x29, #88]
  400c8c:	d2800006 	mov	x6, #0x0                   	// #0
  400c90:	a9035bf5 	stp	x21, x22, [sp, #48]
  400c94:	aa0403f3 	mov	x19, x4
  400c98:	f90023f7 	str	x23, [sp, #64]
  400c9c:	aa0203f5 	mov	x21, x2
  400ca0:	2a0303f6 	mov	w22, w3
  400ca4:	aa0103f7 	mov	x23, x1
  400ca8:	b4000080 	cbz	x0, 400cb8 <__assert_fail_base+0x58>
  400cac:	d2800001 	mov	x1, #0x0                   	// #0
  400cb0:	52800020 	mov	w0, #0x1                   	// #1
  400cb4:	d503201f 	nop
  400cb8:	f00003e1 	adrp	x1, 47f000 <_GLOBAL_OFFSET_TABLE_+0xb8>
  400cbc:	f00002e0 	adrp	x0, 45f000 <translit_from_idx+0x1228>
  400cc0:	f0000267 	adrp	x7, 44f000 <_nl_locale_subfreeres+0x1b8>
  400cc4:	91384000 	add	x0, x0, #0xe10
  400cc8:	f947fc21 	ldr	x1, [x1, #4088]
  400ccc:	911e00e7 	add	x7, x7, #0x780
  400cd0:	39400022 	ldrb	w2, [x1]
  400cd4:	7100005f 	cmp	w2, #0x0
  400cd8:	9a8010e3 	csel	x3, x7, x0, ne  // ne = any
  400cdc:	b40006f3 	cbz	x19, 400db8 <__assert_fail_base+0x158>
  400ce0:	910133a0 	add	x0, x29, #0x4c
  400ce4:	a90003f7 	stp	x23, x0, [sp]
  400ce8:	aa0103e2 	mov	x2, x1
  400cec:	aa1303e6 	mov	x6, x19
  400cf0:	2a1603e5 	mov	w5, w22
  400cf4:	aa1503e4 	mov	x4, x21
  400cf8:	aa1403e1 	mov	x1, x20
  400cfc:	910143a0 	add	x0, x29, #0x50
  400d00:	9400181c 	bl	406d70 <___asprintf>
  400d04:	37f804e0 	tbnz	w0, #31, 400da0 <__assert_fail_base+0x140>
  400d08:	f9402ba2 	ldr	x2, [x29, #80]
  400d0c:	90000341 	adrp	x1, 468000 <__sys_errlist_internal+0x1f0>
  400d10:	d2800000 	mov	x0, #0x0                   	// #0
  400d14:	910aa021 	add	x1, x1, #0x2a8
  400d18:	940018a8 	bl	406fb8 <__fxprintf>
  400d1c:	f00003e0 	adrp	x0, 47f000 <_GLOBAL_OFFSET_TABLE_+0xb8>
  400d20:	f9434c00 	ldr	x0, [x0, #1688]
  400d24:	94001a07 	bl	407540 <_IO_fflush>
  400d28:	90000400 	adrp	x0, 480000 <__progname_full>
  400d2c:	b9404fa1 	ldr	w1, [x29, #76]
  400d30:	d2800005 	mov	x5, #0x0                   	// #0
  400d34:	12800004 	mov	w4, #0xffffffff            	// #-1
  400d38:	f9400400 	ldr	x0, [x0, #8]
  400d3c:	52800443 	mov	w3, #0x22                  	// #34
  400d40:	52800062 	mov	w2, #0x3                   	// #3
  400d44:	0b000021 	add	w1, w1, w0
  400d48:	4b0003e0 	neg	w0, w0
  400d4c:	0a000021 	and	w1, w1, w0
  400d50:	d2800000 	mov	x0, #0x0                   	// #0
  400d54:	b9004fa1 	str	w1, [x29, #76]
  400d58:	93407c21 	sxtw	x1, w1
  400d5c:	9400600f 	bl	418d98 <__mmap64>
  400d60:	aa0003f3 	mov	x19, x0
  400d64:	b100041f 	cmn	x0, #0x1
  400d68:	54000160 	b.eq	400d94 <__assert_fail_base+0x134>  // b.none
  400d6c:	f9402ba1 	ldr	x1, [x29, #80]
  400d70:	b9404fa2 	ldr	w2, [x29, #76]
  400d74:	b8004402 	str	w2, [x0], #4
  400d78:	94005012 	bl	414dc0 <strcpy>
  400d7c:	90000401 	adrp	x1, 480000 <__progname_full>
  400d80:	913e8021 	add	x1, x1, #0xfa0
  400d84:	c85ffc20 	ldaxr	x0, [x1]
  400d88:	c8027c33 	stxr	w2, x19, [x1]
  400d8c:	35ffffc2 	cbnz	w2, 400d84 <__assert_fail_base+0x124>
  400d90:	b50001a0 	cbnz	x0, 400dc4 <__assert_fail_base+0x164>
  400d94:	f9402ba0 	ldr	x0, [x29, #80]
  400d98:	94004af6 	bl	413970 <__free>
  400d9c:	94001159 	bl	405300 <abort>
  400da0:	f0000261 	adrp	x1, 44f000 <_nl_locale_subfreeres+0x1b8>
  400da4:	911ee021 	add	x1, x1, #0x7b8
  400da8:	d2800242 	mov	x2, #0x12                  	// #18
  400dac:	52800040 	mov	w0, #0x2                   	// #2
  400db0:	94005ccc 	bl	4180e0 <__libc_write>
  400db4:	94001153 	bl	405300 <abort>
  400db8:	aa0003f3 	mov	x19, x0
  400dbc:	aa0003e7 	mov	x7, x0
  400dc0:	17ffffc8 	b	400ce0 <__assert_fail_base+0x80>
  400dc4:	b9400001 	ldr	w1, [x0]
  400dc8:	9400600e 	bl	418e00 <__munmap>
  400dcc:	17fffff2 	b	400d94 <__assert_fail_base+0x134>

0000000000400dd0 <__assert_fail>:
  400dd0:	a9bd7bfd 	stp	x29, x30, [sp, #-48]!
  400dd4:	910003fd 	mov	x29, sp
  400dd8:	a90153f3 	stp	x19, x20, [sp, #16]
  400ddc:	aa0003f3 	mov	x19, x0
  400de0:	a9025bf5 	stp	x21, x22, [sp, #32]
  400de4:	aa0103f4 	mov	x20, x1
  400de8:	aa0303f6 	mov	x22, x3
  400dec:	2a0203f5 	mov	w21, w2
  400df0:	f0000261 	adrp	x1, 44f000 <_nl_locale_subfreeres+0x1b8>
  400df4:	528000a2 	mov	w2, #0x5                   	// #5
  400df8:	911e2021 	add	x1, x1, #0x788
  400dfc:	f00002e0 	adrp	x0, 45f000 <translit_from_idx+0x1228>
  400e00:	910e8000 	add	x0, x0, #0x3a0
  400e04:	94000007 	bl	400e20 <__dcgettext>
  400e08:	aa1603e4 	mov	x4, x22
  400e0c:	2a1503e3 	mov	w3, w21
  400e10:	aa1403e2 	mov	x2, x20
  400e14:	aa1303e1 	mov	x1, x19
  400e18:	97ffff92 	bl	400c60 <__assert_fail_base>
  400e1c:	00000000 	.inst	0x00000000 ; undefined

0000000000400e20 <__dcgettext>:
  400e20:	2a0203e5 	mov	w5, w2
  400e24:	d2800004 	mov	x4, #0x0                   	// #0
  400e28:	52800003 	mov	w3, #0x0                   	// #0
  400e2c:	d2800002 	mov	x2, #0x0                   	// #0
  400e30:	14000336 	b	401b08 <__dcigettext>
  400e34:	00000000 	.inst	0x00000000 ; undefined

0000000000400e38 <plural_eval>:
  400e38:	a9bd7bfd 	stp	x29, x30, [sp, #-48]!
  400e3c:	910003fd 	mov	x29, sp
  400e40:	a90153f3 	stp	x19, x20, [sp, #16]
  400e44:	aa0003f3 	mov	x19, x0
  400e48:	f90013f5 	str	x21, [sp, #32]
  400e4c:	aa0103f5 	mov	x21, x1
  400e50:	b9400260 	ldr	w0, [x19]
  400e54:	7100041f 	cmp	w0, #0x1
  400e58:	54000220 	b.eq	400e9c <plural_eval+0x64>  // b.none
  400e5c:	5400052d 	b.le	400f00 <plural_eval+0xc8>
  400e60:	aa1503e1 	mov	x1, x21
  400e64:	7100081f 	cmp	w0, #0x2
  400e68:	540002e0 	b.eq	400ec4 <plural_eval+0x8c>  // b.none
  400e6c:	71000c1f 	cmp	w0, #0x3
  400e70:	540006a1 	b.ne	400f44 <plural_eval+0x10c>  // b.any
  400e74:	f9400660 	ldr	x0, [x19, #8]
  400e78:	97fffff0 	bl	400e38 <plural_eval>
  400e7c:	f100001f 	cmp	x0, #0x0
  400e80:	1a9f17e0 	cset	w0, eq  // eq = none
  400e84:	11000400 	add	w0, w0, #0x1
  400e88:	8b20ce73 	add	x19, x19, w0, sxtw #3
  400e8c:	f9400673 	ldr	x19, [x19, #8]
  400e90:	b9400260 	ldr	w0, [x19]
  400e94:	7100041f 	cmp	w0, #0x1
  400e98:	54fffe21 	b.ne	400e5c <plural_eval+0x24>  // b.any
  400e9c:	f9400660 	ldr	x0, [x19, #8]
  400ea0:	aa1503e1 	mov	x1, x21
  400ea4:	97ffffe5 	bl	400e38 <plural_eval>
  400ea8:	f100001f 	cmp	x0, #0x0
  400eac:	9a9f17f4 	cset	x20, eq  // eq = none
  400eb0:	aa1403e0 	mov	x0, x20
  400eb4:	f94013f5 	ldr	x21, [sp, #32]
  400eb8:	a94153f3 	ldp	x19, x20, [sp, #16]
  400ebc:	a8c37bfd 	ldp	x29, x30, [sp], #48
  400ec0:	d65f03c0 	ret
  400ec4:	f9400660 	ldr	x0, [x19, #8]
  400ec8:	97ffffdc 	bl	400e38 <plural_eval>
  400ecc:	aa0003f4 	mov	x20, x0
  400ed0:	b9400660 	ldr	w0, [x19, #4]
  400ed4:	71003c1f 	cmp	w0, #0xf
  400ed8:	54000420 	b.eq	400f5c <plural_eval+0x124>  // b.none
  400edc:	7100381f 	cmp	w0, #0xe
  400ee0:	54000441 	b.ne	400f68 <plural_eval+0x130>  // b.any
  400ee4:	b4fffe74 	cbz	x20, 400eb0 <plural_eval+0x78>
  400ee8:	f9400a60 	ldr	x0, [x19, #16]
  400eec:	aa1503e1 	mov	x1, x21
  400ef0:	97ffffd2 	bl	400e38 <plural_eval>
  400ef4:	f100001f 	cmp	x0, #0x0
  400ef8:	9a9f07f4 	cset	x20, ne  // ne = any
  400efc:	17ffffed 	b	400eb0 <plural_eval+0x78>
  400f00:	35000220 	cbnz	w0, 400f44 <plural_eval+0x10c>
  400f04:	b9400660 	ldr	w0, [x19, #4]
  400f08:	aa1503f4 	mov	x20, x21
  400f0c:	34fffd20 	cbz	w0, 400eb0 <plural_eval+0x78>
  400f10:	7100041f 	cmp	w0, #0x1
  400f14:	54000181 	b.ne	400f44 <plural_eval+0x10c>  // b.any
  400f18:	f9400674 	ldr	x20, [x19, #8]
  400f1c:	17ffffe5 	b	400eb0 <plural_eval+0x78>
  400f20:	71002c1f 	cmp	w0, #0xb
  400f24:	540008a0 	b.eq	401038 <plural_eval+0x200>  // b.none
  400f28:	54000588 	b.hi	400fd8 <plural_eval+0x1a0>  // b.pmore
  400f2c:	7100241f 	cmp	w0, #0x9
  400f30:	540007e0 	b.eq	40102c <plural_eval+0x1f4>  // b.none
  400f34:	eb15029f 	cmp	x20, x21
  400f38:	9a9f87f4 	cset	x20, ls  // ls = plast
  400f3c:	7100281f 	cmp	w0, #0xa
  400f40:	54fffb80 	b.eq	400eb0 <plural_eval+0x78>  // b.none
  400f44:	d2800014 	mov	x20, #0x0                   	// #0
  400f48:	f94013f5 	ldr	x21, [sp, #32]
  400f4c:	aa1403e0 	mov	x0, x20
  400f50:	a94153f3 	ldp	x19, x20, [sp, #16]
  400f54:	a8c37bfd 	ldp	x29, x30, [sp], #48
  400f58:	d65f03c0 	ret
  400f5c:	b4fffc74 	cbz	x20, 400ee8 <plural_eval+0xb0>
  400f60:	d2800034 	mov	x20, #0x1                   	// #1
  400f64:	17ffffd3 	b	400eb0 <plural_eval+0x78>
  400f68:	f9400a60 	ldr	x0, [x19, #16]
  400f6c:	aa1503e1 	mov	x1, x21
  400f70:	97ffffb2 	bl	400e38 <plural_eval>
  400f74:	aa0003f5 	mov	x21, x0
  400f78:	b9400660 	ldr	w0, [x19, #4]
  400f7c:	7100201f 	cmp	w0, #0x8
  400f80:	540003e0 	b.eq	400ffc <plural_eval+0x1c4>  // b.none
  400f84:	54fffce8 	b.hi	400f20 <plural_eval+0xe8>  // b.pmore
  400f88:	7100141f 	cmp	w0, #0x5
  400f8c:	54000440 	b.eq	401014 <plural_eval+0x1dc>  // b.none
  400f90:	54000188 	b.hi	400fc0 <plural_eval+0x188>  // b.pmore
  400f94:	71000c1f 	cmp	w0, #0x3
  400f98:	540002e0 	b.eq	400ff4 <plural_eval+0x1bc>  // b.none
  400f9c:	7100101f 	cmp	w0, #0x4
  400fa0:	54fffd21 	b.ne	400f44 <plural_eval+0x10c>  // b.any
  400fa4:	b4000075 	cbz	x21, 400fb0 <plural_eval+0x178>
  400fa8:	9ad50a94 	udiv	x20, x20, x21
  400fac:	17ffffc1 	b	400eb0 <plural_eval+0x78>
  400fb0:	52800100 	mov	w0, #0x8                   	// #8
  400fb4:	9400105b 	bl	405120 <raise>
  400fb8:	9ad50a94 	udiv	x20, x20, x21
  400fbc:	17ffffbd 	b	400eb0 <plural_eval+0x78>
  400fc0:	7100181f 	cmp	w0, #0x6
  400fc4:	54000400 	b.eq	401044 <plural_eval+0x20c>  // b.none
  400fc8:	cb150294 	sub	x20, x20, x21
  400fcc:	71001c1f 	cmp	w0, #0x7
  400fd0:	54fff700 	b.eq	400eb0 <plural_eval+0x78>  // b.none
  400fd4:	17ffffdc 	b	400f44 <plural_eval+0x10c>
  400fd8:	7100301f 	cmp	w0, #0xc
  400fdc:	54000160 	b.eq	401008 <plural_eval+0x1d0>  // b.none
  400fe0:	eb15029f 	cmp	x20, x21
  400fe4:	9a9f07f4 	cset	x20, ne  // ne = any
  400fe8:	7100341f 	cmp	w0, #0xd
  400fec:	54fff620 	b.eq	400eb0 <plural_eval+0x78>  // b.none
  400ff0:	17ffffd5 	b	400f44 <plural_eval+0x10c>
  400ff4:	9b157e94 	mul	x20, x20, x21
  400ff8:	17ffffae 	b	400eb0 <plural_eval+0x78>
  400ffc:	eb15029f 	cmp	x20, x21
  401000:	9a9f27f4 	cset	x20, cc  // cc = lo, ul, last
  401004:	17ffffab 	b	400eb0 <plural_eval+0x78>
  401008:	eb15029f 	cmp	x20, x21
  40100c:	9a9f17f4 	cset	x20, eq  // eq = none
  401010:	17ffffa8 	b	400eb0 <plural_eval+0x78>
  401014:	b5000075 	cbnz	x21, 401020 <plural_eval+0x1e8>
  401018:	52800100 	mov	w0, #0x8                   	// #8
  40101c:	94001041 	bl	405120 <raise>
  401020:	9ad50a80 	udiv	x0, x20, x21
  401024:	9b15d014 	msub	x20, x0, x21, x20
  401028:	17ffffa2 	b	400eb0 <plural_eval+0x78>
  40102c:	eb15029f 	cmp	x20, x21
  401030:	9a9f97f4 	cset	x20, hi  // hi = pmore
  401034:	17ffff9f 	b	400eb0 <plural_eval+0x78>
  401038:	eb15029f 	cmp	x20, x21
  40103c:	9a9f37f4 	cset	x20, cs  // cs = hs, nlast
  401040:	17ffff9c 	b	400eb0 <plural_eval+0x78>
  401044:	8b150294 	add	x20, x20, x21
  401048:	17ffff9a 	b	400eb0 <plural_eval+0x78>
  40104c:	d503201f 	nop

0000000000401050 <transcmp>:
  401050:	a9be7bfd 	stp	x29, x30, [sp, #-32]!
  401054:	910003fd 	mov	x29, sp
  401058:	a90153f3 	stp	x19, x20, [sp, #16]
  40105c:	aa0003f4 	mov	x20, x0
  401060:	f9401000 	ldr	x0, [x0, #32]
  401064:	aa0103f3 	mov	x19, x1
  401068:	b40002e0 	cbz	x0, 4010c4 <transcmp+0x74>
  40106c:	9100e280 	add	x0, x20, #0x38
  401070:	f9401261 	ldr	x1, [x19, #32]
  401074:	b4000241 	cbz	x1, 4010bc <transcmp+0x6c>
  401078:	9100e261 	add	x1, x19, #0x38
  40107c:	94004f11 	bl	414cc0 <strcmp>
  401080:	35000180 	cbnz	w0, 4010b0 <transcmp+0x60>
  401084:	f9400261 	ldr	x1, [x19]
  401088:	f9400280 	ldr	x0, [x20]
  40108c:	94004f0d 	bl	414cc0 <strcmp>
  401090:	35000100 	cbnz	w0, 4010b0 <transcmp+0x60>
  401094:	f9400a61 	ldr	x1, [x19, #16]
  401098:	f9400a80 	ldr	x0, [x20, #16]
  40109c:	94004f09 	bl	414cc0 <strcmp>
  4010a0:	35000080 	cbnz	w0, 4010b0 <transcmp+0x60>
  4010a4:	b9400a61 	ldr	w1, [x19, #8]
  4010a8:	b9400a80 	ldr	w0, [x20, #8]
  4010ac:	4b010000 	sub	w0, w0, w1
  4010b0:	a94153f3 	ldp	x19, x20, [sp, #16]
  4010b4:	a8c27bfd 	ldp	x29, x30, [sp], #32
  4010b8:	d65f03c0 	ret
  4010bc:	f9401e61 	ldr	x1, [x19, #56]
  4010c0:	17ffffef 	b	40107c <transcmp+0x2c>
  4010c4:	f9401e80 	ldr	x0, [x20, #56]
  4010c8:	17ffffea 	b	401070 <transcmp+0x20>
  4010cc:	d503201f 	nop

00000000004010d0 <plural_lookup.isra.2>:
  4010d0:	a9bd7bfd 	stp	x29, x30, [sp, #-48]!
  4010d4:	910003fd 	mov	x29, sp
  4010d8:	a9025bf5 	stp	x21, x22, [sp, #32]
  4010dc:	aa0003f6 	mov	x22, x0
  4010e0:	f9405c00 	ldr	x0, [x0, #184]
  4010e4:	aa0203f5 	mov	x21, x2
  4010e8:	a90153f3 	stp	x19, x20, [sp, #16]
  4010ec:	aa0303f4 	mov	x20, x3
  4010f0:	97ffff52 	bl	400e38 <plural_eval>
  4010f4:	aa0003f3 	mov	x19, x0
  4010f8:	f94062c0 	ldr	x0, [x22, #192]
  4010fc:	eb00027f 	cmp	x19, x0
  401100:	540001a2 	b.cs	401134 <plural_lookup.isra.2+0x64>  // b.hs, b.nlast
  401104:	aa1503e2 	mov	x2, x21
  401108:	8b1402b4 	add	x20, x21, x20
  40110c:	d503201f 	nop
  401110:	d1000673 	sub	x19, x19, #0x1
  401114:	aa0203e0 	mov	x0, x2
  401118:	52800001 	mov	w1, #0x0                   	// #0
  40111c:	b100067f 	cmn	x19, #0x1
  401120:	54000140 	b.eq	401148 <plural_lookup.isra.2+0x78>  // b.none
  401124:	94005457 	bl	416280 <__rawmemchr>
  401128:	91000402 	add	x2, x0, #0x1
  40112c:	eb14005f 	cmp	x2, x20
  401130:	54ffff03 	b.cc	401110 <plural_lookup.isra.2+0x40>  // b.lo, b.ul, b.last
  401134:	aa1503e0 	mov	x0, x21
  401138:	a94153f3 	ldp	x19, x20, [sp, #16]
  40113c:	a9425bf5 	ldp	x21, x22, [sp, #32]
  401140:	a8c37bfd 	ldp	x29, x30, [sp], #48
  401144:	d65f03c0 	ret
  401148:	aa0203f5 	mov	x21, x2
  40114c:	17fffffa 	b	401134 <plural_lookup.isra.2+0x64>

0000000000401150 <_nl_find_msg>:
  401150:	a9b57bfd 	stp	x29, x30, [sp, #-176]!
  401154:	b00003e5 	adrp	x5, 47e000 <__FRAME_END__+0x105ac>
  401158:	9128e0a5 	add	x5, x5, #0xa38
  40115c:	910003fd 	mov	x29, sp
  401160:	f94000a6 	ldr	x6, [x5]
  401164:	f90057a6 	str	x6, [x29, #168]
  401168:	d2800006 	mov	x6, #0x0                   	// #0
  40116c:	a90153f3 	stp	x19, x20, [sp, #16]
  401170:	a9025bf5 	stp	x21, x22, [sp, #32]
  401174:	aa0203f3 	mov	x19, x2
  401178:	a90363f7 	stp	x23, x24, [sp, #48]
  40117c:	a9046bf9 	stp	x25, x26, [sp, #64]
  401180:	aa0003f9 	mov	x25, x0
  401184:	b9400802 	ldr	w2, [x0, #8]
  401188:	a90573fb 	stp	x27, x28, [sp, #80]
  40118c:	a90613a1 	stp	x1, x4, [x29, #96]
  401190:	7100005f 	cmp	w2, #0x0
  401194:	b90077a3 	str	w3, [x29, #116]
  401198:	540017cd 	b.le	401490 <_nl_find_msg+0x340>
  40119c:	f9400b3c 	ldr	x28, [x25, #16]
  4011a0:	b40007bc 	cbz	x28, 401294 <_nl_find_msg+0x144>
  4011a4:	f9403380 	ldr	x0, [x28, #96]
  4011a8:	b9402b94 	ldr	w20, [x28, #40]
  4011ac:	b40013a0 	cbz	x0, 401420 <_nl_find_msg+0x2d0>
  4011b0:	aa1303e0 	mov	x0, x19
  4011b4:	94004fe3 	bl	415140 <__strlen>
  4011b8:	aa0003f5 	mov	x21, x0
  4011bc:	aa1303e0 	mov	x0, x19
  4011c0:	94000f9e 	bl	405038 <__hash_string>
  4011c4:	b9008bb5 	str	w21, [x29, #136]
  4011c8:	b9405b82 	ldr	w2, [x28, #88]
  4011cc:	92407eb5 	and	x21, x21, #0xffffffff
  4011d0:	f9403386 	ldr	x6, [x28, #96]
  4011d4:	51000841 	sub	w1, w2, #0x2
  4011d8:	b9406b84 	ldr	w4, [x28, #104]
  4011dc:	1ac2081a 	udiv	w26, w0, w2
  4011e0:	7100009f 	cmp	w4, #0x0
  4011e4:	1ac10803 	udiv	w3, w0, w1
  4011e8:	1b02835a 	msub	w26, w26, w2, w0
  4011ec:	1b018060 	msub	w0, w3, w1, w0
  4011f0:	b87a58c1 	ldr	w1, [x6, w26, uxtw #2]
  4011f4:	1100041b 	add	w27, w0, #0x1
  4011f8:	4b1b0056 	sub	w22, w2, w27
  4011fc:	4b020378 	sub	w24, w27, w2
  401200:	5ac00820 	rev	w0, w1
  401204:	1a811001 	csel	w1, w0, w1, ne  // ne = any
  401208:	34000461 	cbz	w1, 401294 <_nl_find_msg+0x144>
  40120c:	d503201f 	nop
  401210:	51000437 	sub	w23, w1, #0x1
  401214:	6b17029f 	cmp	w20, w23
  401218:	540005e9 	b.ls	4012d4 <_nl_find_msg+0x184>  // b.plast
  40121c:	b9401b88 	ldr	w8, [x28, #24]
  401220:	d37df2e0 	lsl	x0, x23, #3
  401224:	f9401b81 	ldr	x1, [x28, #48]
  401228:	8b000029 	add	x9, x1, x0
  40122c:	b8606820 	ldr	w0, [x1, x0]
  401230:	34000ec8 	cbz	w8, 401408 <_nl_find_msg+0x2b8>
  401234:	b9408ba1 	ldr	w1, [x29, #136]
  401238:	5ac00800 	rev	w0, w0
  40123c:	6b00003f 	cmp	w1, w0
  401240:	54000188 	b.hi	401270 <_nl_find_msg+0x120>  // b.pmore
  401244:	b9400520 	ldr	w0, [x9, #4]
  401248:	f9400381 	ldr	x1, [x28]
  40124c:	5ac00800 	rev	w0, w0
  401250:	8b000021 	add	x1, x1, x0
  401254:	f9003fa6 	str	x6, [x29, #120]
  401258:	b90083a4 	str	w4, [x29, #128]
  40125c:	aa1303e0 	mov	x0, x19
  401260:	94004e98 	bl	414cc0 <strcmp>
  401264:	b94083a4 	ldr	w4, [x29, #128]
  401268:	f9403fa6 	ldr	x6, [x29, #120]
  40126c:	34000520 	cbz	w0, 401310 <_nl_find_msg+0x1c0>
  401270:	0b180340 	add	w0, w26, w24
  401274:	0b1b0341 	add	w1, w26, w27
  401278:	6b1a02df 	cmp	w22, w26
  40127c:	1a80803a 	csel	w26, w1, w0, hi  // hi = pmore
  401280:	7100009f 	cmp	w4, #0x0
  401284:	b87a58c1 	ldr	w1, [x6, w26, uxtw #2]
  401288:	5ac00820 	rev	w0, w1
  40128c:	1a811001 	csel	w1, w0, w1, ne  // ne = any
  401290:	35fffc01 	cbnz	w1, 401210 <_nl_find_msg+0xc0>
  401294:	d2800013 	mov	x19, #0x0                   	// #0
  401298:	b00003e0 	adrp	x0, 47e000 <__FRAME_END__+0x105ac>
  40129c:	9128e018 	add	x24, x0, #0xa38
  4012a0:	f94057a2 	ldr	x2, [x29, #168]
  4012a4:	f9400301 	ldr	x1, [x24]
  4012a8:	ca010041 	eor	x1, x2, x1
  4012ac:	aa1303e0 	mov	x0, x19
  4012b0:	b5004181 	cbnz	x1, 401ae0 <_nl_find_msg+0x990>
  4012b4:	910003bf 	mov	sp, x29
  4012b8:	a94153f3 	ldp	x19, x20, [sp, #16]
  4012bc:	a9425bf5 	ldp	x21, x22, [sp, #32]
  4012c0:	a94363f7 	ldp	x23, x24, [sp, #48]
  4012c4:	a9446bf9 	ldp	x25, x26, [sp, #64]
  4012c8:	a94573fb 	ldp	x27, x28, [sp, #80]
  4012cc:	a8cb7bfd 	ldp	x29, x30, [sp], #176
  4012d0:	d65f03c0 	ret
  4012d4:	4b1402e0 	sub	w0, w23, w20
  4012d8:	f9402781 	ldr	x1, [x28, #72]
  4012dc:	d37cec00 	lsl	x0, x0, #4
  4012e0:	8b000028 	add	x8, x1, x0
  4012e4:	f8606820 	ldr	x0, [x1, x0]
  4012e8:	eb15001f 	cmp	x0, x21
  4012ec:	54fffc29 	b.ls	401270 <_nl_find_msg+0x120>  // b.plast
  4012f0:	f9400501 	ldr	x1, [x8, #8]
  4012f4:	aa1303e0 	mov	x0, x19
  4012f8:	f9003fa6 	str	x6, [x29, #120]
  4012fc:	b90083a4 	str	w4, [x29, #128]
  401300:	94004e70 	bl	414cc0 <strcmp>
  401304:	b94083a4 	ldr	w4, [x29, #128]
  401308:	f9403fa6 	ldr	x6, [x29, #120]
  40130c:	35fffb20 	cbnz	w0, 401270 <_nl_find_msg+0x120>
  401310:	aa1703fb 	mov	x27, x23
  401314:	2a1403e0 	mov	w0, w20
  401318:	f90047a0 	str	x0, [x29, #136]
  40131c:	f94047a0 	ldr	x0, [x29, #136]
  401320:	eb00037f 	cmp	x27, x0
  401324:	54000ba2 	b.cs	401498 <_nl_find_msg+0x348>  // b.hs, b.nlast
  401328:	f9401f81 	ldr	x1, [x28, #56]
  40132c:	d37df360 	lsl	x0, x27, #3
  401330:	b9401b82 	ldr	w2, [x28, #24]
  401334:	8b000023 	add	x3, x1, x0
  401338:	f9400393 	ldr	x19, [x28]
  40133c:	b8606835 	ldr	w21, [x1, x0]
  401340:	b9400460 	ldr	w0, [x3, #4]
  401344:	34000c22 	cbz	w2, 4014c8 <_nl_find_msg+0x378>
  401348:	5ac00800 	rev	w0, w0
  40134c:	5ac00ab5 	rev	w21, w21
  401350:	8b000273 	add	x19, x19, x0
  401354:	b94077a0 	ldr	w0, [x29, #116]
  401358:	110006b8 	add	w24, w21, #0x1
  40135c:	34000b00 	cbz	w0, 4014bc <_nl_find_msg+0x36c>
  401360:	f94033a0 	ldr	x0, [x29, #96]
  401364:	b4000b80 	cbz	x0, 4014d4 <_nl_find_msg+0x384>
  401368:	f9400816 	ldr	x22, [x0, #16]
  40136c:	b4000b56 	cbz	x22, 4014d4 <_nl_find_msg+0x384>
  401370:	d0000260 	adrp	x0, 44f000 <_nl_locale_subfreeres+0x1b8>
  401374:	f943e800 	ldr	x0, [x0, #2000]
  401378:	b4000060 	cbz	x0, 401384 <_nl_find_msg+0x234>
  40137c:	91020380 	add	x0, x28, #0x80
  401380:	d503201f 	nop
  401384:	f9403f95 	ldr	x21, [x28, #120]
  401388:	b4000c15 	cbz	x21, 401508 <_nl_find_msg+0x3b8>
  40138c:	8b1506a0 	add	x0, x21, x21, lsl #1
  401390:	f9403b9a 	ldr	x26, [x28, #112]
  401394:	d37df000 	lsl	x0, x0, #3
  401398:	d1006000 	sub	x0, x0, #0x18
  40139c:	8b00035a 	add	x26, x26, x0
  4013a0:	14000003 	b	4013ac <_nl_find_msg+0x25c>
  4013a4:	d100635a 	sub	x26, x26, #0x18
  4013a8:	b4000b15 	cbz	x21, 401508 <_nl_find_msg+0x3b8>
  4013ac:	f9400340 	ldr	x0, [x26]
  4013b0:	d10006b5 	sub	x21, x21, #0x1
  4013b4:	aa1a03f7 	mov	x23, x26
  4013b8:	aa1603e1 	mov	x1, x22
  4013bc:	94004e41 	bl	414cc0 <strcmp>
  4013c0:	35ffff20 	cbnz	w0, 4013a4 <_nl_find_msg+0x254>
  4013c4:	d0000260 	adrp	x0, 44f000 <_nl_locale_subfreeres+0x1b8>
  4013c8:	f943f000 	ldr	x0, [x0, #2016]
  4013cc:	b4000060 	cbz	x0, 4013d8 <_nl_find_msg+0x288>
  4013d0:	91020380 	add	x0, x28, #0x80
  4013d4:	d503201f 	nop
  4013d8:	f94006e0 	ldr	x0, [x23, #8]
  4013dc:	b100041f 	cmn	x0, #0x1
  4013e0:	540006e0 	b.eq	4014bc <_nl_find_msg+0x36c>  // b.none
  4013e4:	f9400ae0 	ldr	x0, [x23, #16]
  4013e8:	b40026c0 	cbz	x0, 4018c0 <_nl_find_msg+0x770>
  4013ec:	b100041f 	cmn	x0, #0x1
  4013f0:	54002640 	b.eq	4018b8 <_nl_find_msg+0x768>  // b.none
  4013f4:	f87b7800 	ldr	x0, [x0, x27, lsl #3]
  4013f8:	b4000de0 	cbz	x0, 4015b4 <_nl_find_msg+0x464>
  4013fc:	91002013 	add	x19, x0, #0x8
  401400:	f9400018 	ldr	x24, [x0]
  401404:	1400002e 	b	4014bc <_nl_find_msg+0x36c>
  401408:	b9408ba1 	ldr	w1, [x29, #136]
  40140c:	6b00003f 	cmp	w1, w0
  401410:	54fff308 	b.hi	401270 <_nl_find_msg+0x120>  // b.pmore
  401414:	b9400520 	ldr	w0, [x9, #4]
  401418:	f9400381 	ldr	x1, [x28]
  40141c:	17ffff8d 	b	401250 <_nl_find_msg+0x100>
  401420:	2a1403e0 	mov	w0, w20
  401424:	d2800018 	mov	x24, #0x0                   	// #0
  401428:	aa0003fa 	mov	x26, x0
  40142c:	f90047a0 	str	x0, [x29, #136]
  401430:	14000003 	b	40143c <_nl_find_msg+0x2ec>
  401434:	54fff740 	b.eq	40131c <_nl_find_msg+0x1cc>  // b.none
  401438:	91000778 	add	x24, x27, #0x1
  40143c:	eb18035f 	cmp	x26, x24
  401440:	54fff2a9 	b.ls	401294 <_nl_find_msg+0x144>  // b.plast
  401444:	b9401b96 	ldr	w22, [x28, #24]
  401448:	f9400397 	ldr	x23, [x28]
  40144c:	f9401b95 	ldr	x21, [x28, #48]
  401450:	8b1a0306 	add	x6, x24, x26
  401454:	710002df 	cmp	w22, #0x0
  401458:	aa1303e0 	mov	x0, x19
  40145c:	d341fcdb 	lsr	x27, x6, #1
  401460:	8b1b0ea1 	add	x1, x21, x27, lsl #3
  401464:	b9400421 	ldr	w1, [x1, #4]
  401468:	5ac00824 	rev	w4, w1
  40146c:	1a840021 	csel	w1, w1, w4, eq  // eq = none
  401470:	8b0102e1 	add	x1, x23, x1
  401474:	94004e13 	bl	414cc0 <strcmp>
  401478:	7100001f 	cmp	w0, #0x0
  40147c:	54fffdca 	b.ge	401434 <_nl_find_msg+0x2e4>  // b.tcont
  401480:	aa1b03fa 	mov	x26, x27
  401484:	eb1b031f 	cmp	x24, x27
  401488:	54fffe43 	b.cc	401450 <_nl_find_msg+0x300>  // b.lo, b.ul, b.last
  40148c:	17ffff82 	b	401294 <_nl_find_msg+0x144>
  401490:	94000404 	bl	4024a0 <_nl_load_domain>
  401494:	17ffff42 	b	40119c <_nl_find_msg+0x4c>
  401498:	f94047a0 	ldr	x0, [x29, #136]
  40149c:	cb00037a 	sub	x26, x27, x0
  4014a0:	f9402b80 	ldr	x0, [x28, #80]
  4014a4:	d37cef5a 	lsl	x26, x26, #4
  4014a8:	8b1a0001 	add	x1, x0, x26
  4014ac:	f87a6818 	ldr	x24, [x0, x26]
  4014b0:	f9400433 	ldr	x19, [x1, #8]
  4014b4:	b94077a0 	ldr	w0, [x29, #116]
  4014b8:	35fff540 	cbnz	w0, 401360 <_nl_find_msg+0x210>
  4014bc:	f94037a0 	ldr	x0, [x29, #104]
  4014c0:	f9000018 	str	x24, [x0]
  4014c4:	17ffff75 	b	401298 <_nl_find_msg+0x148>
  4014c8:	8b204273 	add	x19, x19, w0, uxtw
  4014cc:	110006b8 	add	w24, w21, #0x1
  4014d0:	17fffff9 	b	4014b4 <_nl_find_msg+0x364>
  4014d4:	f00003fa 	adrp	x26, 480000 <__progname_full>
  4014d8:	91398340 	add	x0, x26, #0xe60
  4014dc:	b9401001 	ldr	w1, [x0, #16]
  4014e0:	34000501 	cbz	w1, 401580 <_nl_find_msg+0x430>
  4014e4:	f9400c16 	ldr	x22, [x0, #24]
  4014e8:	b5fff456 	cbnz	x22, 401370 <_nl_find_msg+0x220>
  4014ec:	b00003e0 	adrp	x0, 47e000 <__FRAME_END__+0x105ac>
  4014f0:	f947c400 	ldr	x0, [x0, #3976]
  4014f4:	d53bd041 	mrs	x1, tpidr_el0
  4014f8:	f8606820 	ldr	x0, [x1, x0]
  4014fc:	f9400000 	ldr	x0, [x0]
  401500:	f9405816 	ldr	x22, [x0, #176]
  401504:	17ffff9b 	b	401370 <_nl_find_msg+0x220>
  401508:	d0000260 	adrp	x0, 44f000 <_nl_locale_subfreeres+0x1b8>
  40150c:	f943f000 	ldr	x0, [x0, #2016]
  401510:	b5000320 	cbnz	x0, 401574 <_nl_find_msg+0x424>
  401514:	d0000260 	adrp	x0, 44f000 <_nl_locale_subfreeres+0x1b8>
  401518:	f943ec00 	ldr	x0, [x0, #2008]
  40151c:	b4000060 	cbz	x0, 401528 <_nl_find_msg+0x3d8>
  401520:	91020380 	add	x0, x28, #0x80
  401524:	d503201f 	nop
  401528:	a9475780 	ldp	x0, x21, [x28, #112]
  40152c:	f9003fa0 	str	x0, [x29, #120]
  401530:	b4000e95 	cbz	x21, 401700 <_nl_find_msg+0x5b0>
  401534:	8b1506a2 	add	x2, x21, x21, lsl #1
  401538:	aa1503e3 	mov	x3, x21
  40153c:	8b020c02 	add	x2, x0, x2, lsl #3
  401540:	d100605a 	sub	x26, x2, #0x18
  401544:	14000004 	b	401554 <_nl_find_msg+0x404>
  401548:	f94047a3 	ldr	x3, [x29, #136]
  40154c:	d100635a 	sub	x26, x26, #0x18
  401550:	b4000d83 	cbz	x3, 401700 <_nl_find_msg+0x5b0>
  401554:	f9400340 	ldr	x0, [x26]
  401558:	d1000463 	sub	x3, x3, #0x1
  40155c:	aa1a03f7 	mov	x23, x26
  401560:	aa1603e1 	mov	x1, x22
  401564:	a9080fa3 	stp	x3, x3, [x29, #128]
  401568:	94004dd6 	bl	414cc0 <strcmp>
  40156c:	35fffee0 	cbnz	w0, 401548 <_nl_find_msg+0x3f8>
  401570:	17ffff95 	b	4013c4 <_nl_find_msg+0x274>
  401574:	91020380 	add	x0, x28, #0x80
  401578:	d503201f 	nop
  40157c:	17ffffe6 	b	401514 <_nl_find_msg+0x3c4>
  401580:	d0000260 	adrp	x0, 44f000 <_nl_locale_subfreeres+0x1b8>
  401584:	91200000 	add	x0, x0, #0x800
  401588:	94001170 	bl	405b48 <getenv>
  40158c:	aa0003f7 	mov	x23, x0
  401590:	b4000060 	cbz	x0, 40159c <_nl_find_msg+0x44c>
  401594:	39400001 	ldrb	w1, [x0]
  401598:	35001d61 	cbnz	w1, 401944 <_nl_find_msg+0x7f4>
  40159c:	91398340 	add	x0, x26, #0xe60
  4015a0:	f9400c16 	ldr	x22, [x0, #24]
  4015a4:	9139835a 	add	x26, x26, #0xe60
  4015a8:	52800020 	mov	w0, #0x1                   	// #1
  4015ac:	b9001340 	str	w0, [x26, #16]
  4015b0:	17ffffce 	b	4014e8 <_nl_find_msg+0x398>
  4015b4:	f00003fa 	adrp	x26, 480000 <__progname_full>
  4015b8:	91398340 	add	x0, x26, #0xe60
  4015bc:	91008000 	add	x0, x0, #0x20
  4015c0:	52800021 	mov	w1, #0x1                   	// #1
  4015c4:	885ffc02 	ldaxr	w2, [x0]
  4015c8:	35000062 	cbnz	w2, 4015d4 <_nl_find_msg+0x484>
  4015cc:	88037c01 	stxr	w3, w1, [x0]
  4015d0:	35ffffa3 	cbnz	w3, 4015c4 <_nl_find_msg+0x474>
  4015d4:	7100005f 	cmp	w2, #0x0
  4015d8:	540022c1 	b.ne	401a30 <_nl_find_msg+0x8e0>  // b.any
  4015dc:	91398340 	add	x0, x26, #0xe60
  4015e0:	5280001c 	mov	w28, #0x0                   	// #0
  4015e4:	aa0003f9 	mov	x25, x0
  4015e8:	d281fe15 	mov	x21, #0xff0                 	// #4080
  4015ec:	a9428402 	ldp	x2, x1, [x0, #40]
  4015f0:	91002040 	add	x0, x2, #0x8
  4015f4:	a90903b3 	stp	x19, x0, [x29, #144]
  4015f8:	f1001c3f 	cmp	x1, #0x7
  4015fc:	54000288 	b.hi	40164c <_nl_find_msg+0x4fc>  // b.pmore
  401600:	3400045c 	cbz	w28, 401688 <_nl_find_msg+0x538>
  401604:	1100079c 	add	w28, w28, #0x1
  401608:	f9400736 	ldr	x22, [x25, #8]
  40160c:	53185f81 	lsl	w1, w28, #8
  401610:	aa1603e0 	mov	x0, x22
  401614:	4b1c0021 	sub	w1, w1, w28
  401618:	531c6c21 	lsl	w1, w1, #4
  40161c:	93407c34 	sxtw	x20, w1
  401620:	f9001b34 	str	x20, [x25, #48]
  401624:	aa1403e1 	mov	x1, x20
  401628:	94004910 	bl	413a68 <__libc_realloc>
  40162c:	b4000420 	cbz	x0, 4016b0 <_nl_find_msg+0x560>
  401630:	d1002281 	sub	x1, x20, #0x8
  401634:	f9000720 	str	x0, [x25, #8]
  401638:	91002002 	add	x2, x0, #0x8
  40163c:	91004000 	add	x0, x0, #0x10
  401640:	a9028722 	stp	x2, x1, [x25, #40]
  401644:	f9004fa0 	str	x0, [x29, #152]
  401648:	17ffffec 	b	4015f8 <_nl_find_msg+0x4a8>
  40164c:	a94913a2 	ldp	x2, x4, [x29, #144]
  401650:	d1002021 	sub	x1, x1, #0x8
  401654:	f94006e0 	ldr	x0, [x23, #8]
  401658:	910283a5 	add	x5, x29, #0xa0
  40165c:	8b010084 	add	x4, x4, x1
  401660:	910243a1 	add	x1, x29, #0x90
  401664:	910263a3 	add	x3, x29, #0x98
  401668:	8b180042 	add	x2, x2, x24
  40166c:	94006961 	bl	41bbf0 <__gconv>
  401670:	721d7801 	ands	w1, w0, #0xfffffffb
  401674:	540018e0 	b.eq	401990 <_nl_find_msg+0x840>  // b.none
  401678:	7100141f 	cmp	w0, #0x5
  40167c:	54001b81 	b.ne	4019ec <_nl_find_msg+0x89c>  // b.any
  401680:	f9004bb3 	str	x19, [x29, #144]
  401684:	17ffffdf 	b	401600 <_nl_find_msg+0x4b0>
  401688:	d281fe00 	mov	x0, #0xff0                 	// #4080
  40168c:	f9001b35 	str	x21, [x25, #48]
  401690:	94004720 	bl	413310 <__libc_malloc>
  401694:	b4000160 	cbz	x0, 4016c0 <_nl_find_msg+0x570>
  401698:	f9400722 	ldr	x2, [x25, #8]
  40169c:	d281fd01 	mov	x1, #0xfe8                 	// #4072
  4016a0:	5280003c 	mov	w28, #0x1                   	// #1
  4016a4:	f9000002 	str	x2, [x0]
  4016a8:	f9000720 	str	x0, [x25, #8]
  4016ac:	17ffffe3 	b	401638 <_nl_find_msg+0x4e8>
  4016b0:	f94002c1 	ldr	x1, [x22]
  4016b4:	aa1603e0 	mov	x0, x22
  4016b8:	f9000721 	str	x1, [x25, #8]
  4016bc:	940048ad 	bl	413970 <__free>
  4016c0:	9139835a 	add	x26, x26, #0xe60
  4016c4:	52800002 	mov	w2, #0x0                   	// #0
  4016c8:	91008340 	add	x0, x26, #0x20
  4016cc:	a902ff5f 	stp	xzr, xzr, [x26, #40]
  4016d0:	885f7c01 	ldxr	w1, [x0]
  4016d4:	8803fc02 	stlxr	w3, w2, [x0]
  4016d8:	35ffffc3 	cbnz	w3, 4016d0 <_nl_find_msg+0x580>
  4016dc:	7100043f 	cmp	w1, #0x1
  4016e0:	92800013 	mov	x19, #0xffffffffffffffff    	// #-1
  4016e4:	54ffddad 	b.le	401298 <_nl_find_msg+0x148>
  4016e8:	d2801021 	mov	x1, #0x81                  	// #129
  4016ec:	d2800022 	mov	x2, #0x1                   	// #1
  4016f0:	d2800003 	mov	x3, #0x0                   	// #0
  4016f4:	d2800c48 	mov	x8, #0x62                  	// #98
  4016f8:	d4000001 	svc	#0x0
  4016fc:	17fffee7 	b	401298 <_nl_find_msg+0x148>
  401700:	910006ba 	add	x26, x21, #0x1
  401704:	f9403fa0 	ldr	x0, [x29, #120]
  401708:	8b1a075a 	add	x26, x26, x26, lsl #1
  40170c:	d37df357 	lsl	x23, x26, #3
  401710:	b4001120 	cbz	x0, 401934 <_nl_find_msg+0x7e4>
  401714:	aa1703e1 	mov	x1, x23
  401718:	940048d4 	bl	413a68 <__libc_realloc>
  40171c:	aa0003fa 	mov	x26, x0
  401720:	b40012ba 	cbz	x26, 401974 <_nl_find_msg+0x824>
  401724:	f9003b9a 	str	x26, [x28, #112]
  401728:	aa1603e0 	mov	x0, x22
  40172c:	94004e6d 	bl	4150e0 <__strdup>
  401730:	aa0003f6 	mov	x22, x0
  401734:	b4001200 	cbz	x0, 401974 <_nl_find_msg+0x824>
  401738:	d10062e0 	sub	x0, x23, #0x18
  40173c:	92800001 	mov	x1, #0xffffffffffffffff    	// #-1
  401740:	8b000357 	add	x23, x26, x0
  401744:	d00002e2 	adrp	x2, 45f000 <translit_from_idx+0x1228>
  401748:	910283a4 	add	x4, x29, #0xa0
  40174c:	52800003 	mov	w3, #0x0                   	// #0
  401750:	f8206b56 	str	x22, [x26, x0]
  401754:	91384042 	add	x2, x2, #0xe10
  401758:	f90006e1 	str	x1, [x23, #8]
  40175c:	aa1903e0 	mov	x0, x25
  401760:	f94033a1 	ldr	x1, [x29, #96]
  401764:	97fffe7b 	bl	401150 <_nl_find_msg>
  401768:	aa0003e1 	mov	x1, x0
  40176c:	b100041f 	cmn	x0, #0x1
  401770:	54001780 	b.eq	401a60 <_nl_find_msg+0x910>  // b.none
  401774:	b4000980 	cbz	x0, 4018a4 <_nl_find_msg+0x754>
  401778:	d0000261 	adrp	x1, 44f000 <_nl_locale_subfreeres+0x1b8>
  40177c:	91204021 	add	x1, x1, #0x810
  401780:	94005048 	bl	4158a0 <strstr>
  401784:	b4000900 	cbz	x0, 4018a4 <_nl_find_msg+0x754>
  401788:	91002019 	add	x25, x0, #0x8
  40178c:	d0000261 	adrp	x1, 44f000 <_nl_locale_subfreeres+0x1b8>
  401790:	91208021 	add	x1, x1, #0x820
  401794:	aa1903e0 	mov	x0, x25
  401798:	94004df8 	bl	414f78 <strcspn>
  40179c:	91007c01 	add	x1, x0, #0x1f
  4017a0:	aa0003e2 	mov	x2, x0
  4017a4:	927cec20 	and	x0, x1, #0xfffffffffffffff0
  4017a8:	cb2063ff 	sub	sp, sp, x0
  4017ac:	aa1903e1 	mov	x1, x25
  4017b0:	910003f9 	mov	x25, sp
  4017b4:	aa1903e0 	mov	x0, x25
  4017b8:	940051fa 	bl	415fa0 <__mempcpy>
  4017bc:	aa1603e1 	mov	x1, x22
  4017c0:	3900001f 	strb	wzr, [x0]
  4017c4:	d2800003 	mov	x3, #0x0                   	// #0
  4017c8:	14000004 	b	4017d8 <_nl_find_msg+0x688>
  4017cc:	7100bc1f 	cmp	w0, #0x2f
  4017d0:	91000421 	add	x1, x1, #0x1
  4017d4:	9a831463 	cinc	x3, x3, eq  // eq = none
  4017d8:	39400020 	ldrb	w0, [x1]
  4017dc:	35ffff80 	cbnz	w0, 4017cc <_nl_find_msg+0x67c>
  4017e0:	cb160020 	sub	x0, x1, x22
  4017e4:	394002c2 	ldrb	w2, [x22]
  4017e8:	9100a400 	add	x0, x0, #0x29
  4017ec:	927cec00 	and	x0, x0, #0xfffffffffffffff0
  4017f0:	cb2063ff 	sub	sp, sp, x0
  4017f4:	910003e0 	mov	x0, sp
  4017f8:	34001522 	cbz	w2, 401a9c <_nl_find_msg+0x94c>
  4017fc:	d00002e7 	adrp	x7, 45f000 <translit_from_idx+0x1228>
  401800:	aa1603e4 	mov	x4, x22
  401804:	aa0003e1 	mov	x1, x0
  401808:	f94218e8 	ldr	x8, [x7, #1072]
  40180c:	2a0203e7 	mov	w7, w2
  401810:	38401c82 	ldrb	w2, [x4, #1]!
  401814:	b8677907 	ldr	w7, [x8, x7, lsl #2]
  401818:	38001427 	strb	w7, [x1], #1
  40181c:	35ffff82 	cbnz	w2, 40180c <_nl_find_msg+0x6bc>
  401820:	f100047f 	cmp	x3, #0x1
  401824:	540012c9 	b.ls	401a7c <_nl_find_msg+0x92c>  // b.plast
  401828:	3900003f 	strb	wzr, [x1]
  40182c:	d2800004 	mov	x4, #0x0                   	// #0
  401830:	aa1903e1 	mov	x1, x25
  401834:	14000004 	b	401844 <_nl_find_msg+0x6f4>
  401838:	7100bc5f 	cmp	w2, #0x2f
  40183c:	91000421 	add	x1, x1, #0x1
  401840:	9a841484 	cinc	x4, x4, eq  // eq = none
  401844:	39400022 	ldrb	w2, [x1]
  401848:	35ffff82 	cbnz	w2, 401838 <_nl_find_msg+0x6e8>
  40184c:	cb190021 	sub	x1, x1, x25
  401850:	39400322 	ldrb	w2, [x25]
  401854:	91008421 	add	x1, x1, #0x21
  401858:	927cec21 	and	x1, x1, #0xfffffffffffffff0
  40185c:	cb2163ff 	sub	sp, sp, x1
  401860:	910003e1 	mov	x1, sp
  401864:	340012a2 	cbz	w2, 401ab8 <_nl_find_msg+0x968>
  401868:	d00002e7 	adrp	x7, 45f000 <translit_from_idx+0x1228>
  40186c:	aa0103e3 	mov	x3, x1
  401870:	f94218e8 	ldr	x8, [x7, #1072]
  401874:	2a0203e7 	mov	w7, w2
  401878:	38401f22 	ldrb	w2, [x25, #1]!
  40187c:	b8677907 	ldr	w7, [x8, x7, lsl #2]
  401880:	38001467 	strb	w7, [x3], #1
  401884:	35ffff82 	cbnz	w2, 401874 <_nl_find_msg+0x724>
  401888:	f100049f 	cmp	x4, #0x1
  40188c:	54000ee9 	b.ls	401a68 <_nl_find_msg+0x918>  // b.plast
  401890:	3900007f 	strb	wzr, [x3]
  401894:	910022e2 	add	x2, x23, #0x8
  401898:	52800023 	mov	w3, #0x1                   	// #1
  40189c:	940067b5 	bl	41b770 <__gconv_open>
  4018a0:	35000cc0 	cbnz	w0, 401a38 <_nl_find_msg+0x8e8>
  4018a4:	f9403f80 	ldr	x0, [x28, #120]
  4018a8:	f9000aff 	str	xzr, [x23, #16]
  4018ac:	91000400 	add	x0, x0, #0x1
  4018b0:	f9003f80 	str	x0, [x28, #120]
  4018b4:	17fffec4 	b	4013c4 <_nl_find_msg+0x274>
  4018b8:	92800013 	mov	x19, #0xffffffffffffffff    	// #-1
  4018bc:	17fffe77 	b	401298 <_nl_find_msg+0x148>
  4018c0:	f00003fa 	adrp	x26, 480000 <__progname_full>
  4018c4:	91398340 	add	x0, x26, #0xe60
  4018c8:	91008000 	add	x0, x0, #0x20
  4018cc:	52800021 	mov	w1, #0x1                   	// #1
  4018d0:	885ffc02 	ldaxr	w2, [x0]
  4018d4:	35000062 	cbnz	w2, 4018e0 <_nl_find_msg+0x790>
  4018d8:	88037c01 	stxr	w3, w1, [x0]
  4018dc:	35ffffa3 	cbnz	w3, 4018d0 <_nl_find_msg+0x780>
  4018e0:	7100005f 	cmp	w2, #0x0
  4018e4:	54000e61 	b.ne	401ab0 <_nl_find_msg+0x960>  // b.any
  4018e8:	f9400ae0 	ldr	x0, [x23, #16]
  4018ec:	b4000940 	cbz	x0, 401a14 <_nl_find_msg+0x8c4>
  4018f0:	91398340 	add	x0, x26, #0xe60
  4018f4:	52800002 	mov	w2, #0x0                   	// #0
  4018f8:	91008000 	add	x0, x0, #0x20
  4018fc:	885f7c01 	ldxr	w1, [x0]
  401900:	8803fc02 	stlxr	w3, w2, [x0]
  401904:	35ffffc3 	cbnz	w3, 4018fc <_nl_find_msg+0x7ac>
  401908:	7100043f 	cmp	w1, #0x1
  40190c:	5400006c 	b.gt	401918 <_nl_find_msg+0x7c8>
  401910:	f9400ae0 	ldr	x0, [x23, #16]
  401914:	17fffeb6 	b	4013ec <_nl_find_msg+0x29c>
  401918:	d2801021 	mov	x1, #0x81                  	// #129
  40191c:	d2800022 	mov	x2, #0x1                   	// #1
  401920:	d2800003 	mov	x3, #0x0                   	// #0
  401924:	d2800c48 	mov	x8, #0x62                  	// #98
  401928:	d4000001 	svc	#0x0
  40192c:	f9400ae0 	ldr	x0, [x23, #16]
  401930:	17fffeaf 	b	4013ec <_nl_find_msg+0x29c>
  401934:	aa1703e0 	mov	x0, x23
  401938:	94004676 	bl	413310 <__libc_malloc>
  40193c:	aa0003fa 	mov	x26, x0
  401940:	17ffff78 	b	401720 <_nl_find_msg+0x5d0>
  401944:	94004dff 	bl	415140 <__strlen>
  401948:	91000415 	add	x21, x0, #0x1
  40194c:	aa1503e0 	mov	x0, x21
  401950:	94004670 	bl	413310 <__libc_malloc>
  401954:	aa0003f6 	mov	x22, x0
  401958:	b4000080 	cbz	x0, 401968 <_nl_find_msg+0x818>
  40195c:	aa1503e2 	mov	x2, x21
  401960:	aa1703e1 	mov	x1, x23
  401964:	97fffa3b 	bl	400250 <.plt+0x10>
  401968:	91398340 	add	x0, x26, #0xe60
  40196c:	f9000c16 	str	x22, [x0, #24]
  401970:	17ffff0d 	b	4015a4 <_nl_find_msg+0x454>
  401974:	d0000260 	adrp	x0, 44f000 <_nl_locale_subfreeres+0x1b8>
  401978:	f943f000 	ldr	x0, [x0, #2016]
  40197c:	b4fff9e0 	cbz	x0, 4018b8 <_nl_find_msg+0x768>
  401980:	91020380 	add	x0, x28, #0x80
  401984:	92800013 	mov	x19, #0xffffffffffffffff    	// #-1
  401988:	d503201f 	nop
  40198c:	17fffe43 	b	401298 <_nl_find_msg+0x148>
  401990:	9139835a 	add	x26, x26, #0xe60
  401994:	f9404fa3 	ldr	x3, [x29, #152]
  401998:	f9400ae8 	ldr	x8, [x23, #16]
  40199c:	d37df367 	lsl	x7, x27, #3
  4019a0:	91008340 	add	x0, x26, #0x20
  4019a4:	a9428b45 	ldp	x5, x2, [x26, #40]
  4019a8:	cb050064 	sub	x4, x3, x5
  4019ac:	cb040042 	sub	x2, x2, x4
  4019b0:	d1002084 	sub	x4, x4, #0x8
  4019b4:	92400849 	and	x9, x2, #0x7
  4019b8:	f90000a4 	str	x4, [x5]
  4019bc:	8b090063 	add	x3, x3, x9
  4019c0:	927df042 	and	x2, x2, #0xfffffffffffffff8
  4019c4:	f83b7905 	str	x5, [x8, x27, lsl #3]
  4019c8:	a9028b43 	stp	x3, x2, [x26, #40]
  4019cc:	885f7c02 	ldxr	w2, [x0]
  4019d0:	8803fc01 	stlxr	w3, w1, [x0]
  4019d4:	35ffffc3 	cbnz	w3, 4019cc <_nl_find_msg+0x87c>
  4019d8:	7100045f 	cmp	w2, #0x1
  4019dc:	5400084c 	b.gt	401ae4 <_nl_find_msg+0x994>
  4019e0:	f9400ae0 	ldr	x0, [x23, #16]
  4019e4:	f8676800 	ldr	x0, [x0, x7]
  4019e8:	17fffe85 	b	4013fc <_nl_find_msg+0x2ac>
  4019ec:	91398340 	add	x0, x26, #0xe60
  4019f0:	52800002 	mov	w2, #0x0                   	// #0
  4019f4:	91008000 	add	x0, x0, #0x20
  4019f8:	885f7c01 	ldxr	w1, [x0]
  4019fc:	8803fc02 	stlxr	w3, w2, [x0]
  401a00:	35ffffc3 	cbnz	w3, 4019f8 <_nl_find_msg+0x8a8>
  401a04:	d2800013 	mov	x19, #0x0                   	// #0
  401a08:	7100043f 	cmp	w1, #0x1
  401a0c:	54ffc46d 	b.le	401298 <_nl_find_msg+0x148>
  401a10:	17ffff36 	b	4016e8 <_nl_find_msg+0x598>
  401a14:	b9404380 	ldr	w0, [x28, #64]
  401a18:	d2800101 	mov	x1, #0x8                   	// #8
  401a1c:	0b000280 	add	w0, w20, w0
  401a20:	94004932 	bl	413ee8 <__calloc>
  401a24:	b4000400 	cbz	x0, 401aa4 <_nl_find_msg+0x954>
  401a28:	f9000ae0 	str	x0, [x23, #16]
  401a2c:	17fffeec 	b	4015dc <_nl_find_msg+0x48c>
  401a30:	94006196 	bl	41a088 <__lll_lock_wait_private>
  401a34:	17fffeea 	b	4015dc <_nl_find_msg+0x48c>
  401a38:	3100041f 	cmn	w0, #0x1
  401a3c:	54000600 	b.eq	401afc <_nl_find_msg+0x9ac>  // b.none
  401a40:	d0000260 	adrp	x0, 44f000 <_nl_locale_subfreeres+0x1b8>
  401a44:	f943f000 	ldr	x0, [x0, #2016]
  401a48:	b4000060 	cbz	x0, 401a54 <_nl_find_msg+0x904>
  401a4c:	91020380 	add	x0, x28, #0x80
  401a50:	d503201f 	nop
  401a54:	aa1603e0 	mov	x0, x22
  401a58:	940047c6 	bl	413970 <__free>
  401a5c:	d2800001 	mov	x1, #0x0                   	// #0
  401a60:	aa0103f3 	mov	x19, x1
  401a64:	17fffe0d 	b	401298 <_nl_find_msg+0x148>
  401a68:	528005e2 	mov	w2, #0x2f                  	// #47
  401a6c:	39000062 	strb	w2, [x3]
  401a70:	b4000104 	cbz	x4, 401a90 <_nl_find_msg+0x940>
  401a74:	91000463 	add	x3, x3, #0x1
  401a78:	17ffff86 	b	401890 <_nl_find_msg+0x740>
  401a7c:	528005e2 	mov	w2, #0x2f                  	// #47
  401a80:	39000022 	strb	w2, [x1]
  401a84:	b40001e3 	cbz	x3, 401ac0 <_nl_find_msg+0x970>
  401a88:	91000421 	add	x1, x1, #0x1
  401a8c:	17ffff67 	b	401828 <_nl_find_msg+0x6d8>
  401a90:	39000462 	strb	w2, [x3, #1]
  401a94:	91000863 	add	x3, x3, #0x2
  401a98:	17ffff7e 	b	401890 <_nl_find_msg+0x740>
  401a9c:	aa0003e1 	mov	x1, x0
  401aa0:	17ffff60 	b	401820 <_nl_find_msg+0x6d0>
  401aa4:	92800000 	mov	x0, #0xffffffffffffffff    	// #-1
  401aa8:	f9000ae0 	str	x0, [x23, #16]
  401aac:	17ffff91 	b	4018f0 <_nl_find_msg+0x7a0>
  401ab0:	94006176 	bl	41a088 <__lll_lock_wait_private>
  401ab4:	17ffff8d 	b	4018e8 <_nl_find_msg+0x798>
  401ab8:	aa0103e3 	mov	x3, x1
  401abc:	17ffff73 	b	401888 <_nl_find_msg+0x738>
  401ac0:	39000422 	strb	w2, [x1, #1]
  401ac4:	d28a4a82 	mov	x2, #0x5254                	// #21076
  401ac8:	f2a9c822 	movk	x2, #0x4e41, lsl #16
  401acc:	91002821 	add	x1, x1, #0xa
  401ad0:	f2c98a62 	movk	x2, #0x4c53, lsl #32
  401ad4:	f2ea8922 	movk	x2, #0x5449, lsl #48
  401ad8:	f81f8022 	stur	x2, [x1, #-8]
  401adc:	17ffff53 	b	401828 <_nl_find_msg+0x6d8>
  401ae0:	940061d0 	bl	41a220 <__stack_chk_fail>
  401ae4:	d2801021 	mov	x1, #0x81                  	// #129
  401ae8:	d2800022 	mov	x2, #0x1                   	// #1
  401aec:	d2800003 	mov	x3, #0x0                   	// #0
  401af0:	d2800c48 	mov	x8, #0x62                  	// #98
  401af4:	d4000001 	svc	#0x0
  401af8:	17ffffba 	b	4019e0 <_nl_find_msg+0x890>
  401afc:	92800000 	mov	x0, #0xffffffffffffffff    	// #-1
  401b00:	f90006e0 	str	x0, [x23, #8]
  401b04:	17ffff68 	b	4018a4 <_nl_find_msg+0x754>

0000000000401b08 <__dcigettext>:
  401b08:	a9ad7bfd 	stp	x29, x30, [sp, #-304]!
  401b0c:	910003fd 	mov	x29, sp
  401b10:	a90363f7 	stp	x23, x24, [sp, #48]
  401b14:	b00003f7 	adrp	x23, 47e000 <__FRAME_END__+0x105ac>
  401b18:	9128e2e6 	add	x6, x23, #0xa38
  401b1c:	a90153f3 	stp	x19, x20, [sp, #16]
  401b20:	f94000c7 	ldr	x7, [x6]
  401b24:	f90097a7 	str	x7, [x29, #296]
  401b28:	d2800007 	mov	x7, #0x0                   	// #0
  401b2c:	a9025bf5 	stp	x21, x22, [sp, #32]
  401b30:	a9046bf9 	stp	x25, x26, [sp, #64]
  401b34:	a90573fb 	stp	x27, x28, [sp, #80]
  401b38:	f90053a2 	str	x2, [x29, #160]
  401b3c:	f9005ba4 	str	x4, [x29, #176]
  401b40:	b900bfa3 	str	w3, [x29, #188]
  401b44:	f9006fbf 	str	xzr, [x29, #216]
  401b48:	b4002a81 	cbz	x1, 402098 <__dcigettext+0x590>
  401b4c:	710030bf 	cmp	w5, #0xc
  401b50:	aa0103f8 	mov	x24, x1
  401b54:	2a0503f9 	mov	w25, w5
  401b58:	7a4698a4 	ccmp	w5, #0x6, #0x4, ls  // ls = plast
  401b5c:	540002c1 	b.ne	401bb4 <__dcigettext+0xac>  // b.any
  401b60:	b940bfa0 	ldr	w0, [x29, #188]
  401b64:	aa1803e4 	mov	x4, x24
  401b68:	7100001f 	cmp	w0, #0x0
  401b6c:	f9405ba0 	ldr	x0, [x29, #176]
  401b70:	fa411804 	ccmp	x0, #0x1, #0x4, ne  // ne = any
  401b74:	54000040 	b.eq	401b7c <__dcigettext+0x74>  // b.none
  401b78:	f94053a4 	ldr	x4, [x29, #160]
  401b7c:	9128e2f7 	add	x23, x23, #0xa38
  401b80:	aa0403e0 	mov	x0, x4
  401b84:	f94097a2 	ldr	x2, [x29, #296]
  401b88:	f94002e1 	ldr	x1, [x23]
  401b8c:	ca010041 	eor	x1, x2, x1
  401b90:	b5003361 	cbnz	x1, 4021fc <__dcigettext+0x6f4>
  401b94:	910003bf 	mov	sp, x29
  401b98:	a94153f3 	ldp	x19, x20, [sp, #16]
  401b9c:	a9425bf5 	ldp	x21, x22, [sp, #32]
  401ba0:	a94363f7 	ldp	x23, x24, [sp, #48]
  401ba4:	a9446bf9 	ldp	x25, x26, [sp, #64]
  401ba8:	a94573fb 	ldp	x27, x28, [sp, #80]
  401bac:	a8d37bfd 	ldp	x29, x30, [sp], #304
  401bb0:	d65f03c0 	ret
  401bb4:	b00003e1 	adrp	x1, 47e000 <__FRAME_END__+0x105ac>
  401bb8:	f947c821 	ldr	x1, [x1, #3984]
  401bbc:	d53bd042 	mrs	x2, tpidr_el0
  401bc0:	d0000273 	adrp	x19, 44f000 <_nl_locale_subfreeres+0x1b8>
  401bc4:	aa0003f6 	mov	x22, x0
  401bc8:	a9080ba1 	stp	x1, x2, [x29, #128]
  401bcc:	f943f660 	ldr	x0, [x19, #2024]
  401bd0:	b8616841 	ldr	w1, [x2, x1]
  401bd4:	b900bba1 	str	w1, [x29, #184]
  401bd8:	b4001580 	cbz	x0, 401e88 <__dcigettext+0x380>
  401bdc:	f00003e1 	adrp	x1, 480000 <__progname_full>
  401be0:	90000400 	adrp	x0, 481000 <initial+0x40>
  401be4:	aa0103f4 	mov	x20, x1
  401be8:	91190000 	add	x0, x0, #0x640
  401bec:	f90057a1 	str	x1, [x29, #168]
  401bf0:	d503201f 	nop
  401bf4:	91398280 	add	x0, x20, #0xe60
  401bf8:	9100e000 	add	x0, x0, #0x38
  401bfc:	d503201f 	nop
  401c00:	b4001616 	cbz	x22, 401ec0 <__dcigettext+0x3b8>
  401c04:	2a1903e0 	mov	w0, w25
  401c08:	f90077b6 	str	x22, [x29, #232]
  401c0c:	b900f3b9 	str	w25, [x29, #240]
  401c10:	f90087bf 	str	xzr, [x29, #264]
  401c14:	f90093b8 	str	x24, [x29, #288]
  401c18:	94008e16 	bl	425470 <__current_locale_name>
  401c1c:	f9003fa0 	str	x0, [x29, #120]
  401c20:	f9007fa0 	str	x0, [x29, #248]
  401c24:	f94057a0 	ldr	x0, [x29, #168]
  401c28:	91398000 	add	x0, x0, #0xe60
  401c2c:	9101c000 	add	x0, x0, #0x70
  401c30:	d503201f 	nop
  401c34:	f94057a0 	ldr	x0, [x29, #168]
  401c38:	91398013 	add	x19, x0, #0xe60
  401c3c:	90000000 	adrp	x0, 401000 <plural_eval+0x1c8>
  401c40:	aa1303e1 	mov	x1, x19
  401c44:	91014002 	add	x2, x0, #0x50
  401c48:	9103a3a0 	add	x0, x29, #0xe8
  401c4c:	94005da9 	bl	4192f0 <__tfind>
  401c50:	f9004fa0 	str	x0, [x29, #152]
  401c54:	d0000260 	adrp	x0, 44f000 <_nl_locale_subfreeres+0x1b8>
  401c58:	f943f800 	ldr	x0, [x0, #2032]
  401c5c:	b4000060 	cbz	x0, 401c68 <__dcigettext+0x160>
  401c60:	9101c260 	add	x0, x19, #0x70
  401c64:	d503201f 	nop
  401c68:	f9404fa0 	ldr	x0, [x29, #152]
  401c6c:	b40000e0 	cbz	x0, 401c88 <__dcigettext+0x180>
  401c70:	f9400000 	ldr	x0, [x0]
  401c74:	90000401 	adrp	x1, 481000 <initial+0x40>
  401c78:	b94f7021 	ldr	w1, [x1, #3952]
  401c7c:	b9401802 	ldr	w2, [x0, #24]
  401c80:	6b01005f 	cmp	w2, w1
  401c84:	54001d40 	b.eq	40202c <__dcigettext+0x524>  // b.none
  401c88:	90000400 	adrp	x0, 481000 <initial+0x40>
  401c8c:	f947b413 	ldr	x19, [x0, #3944]
  401c90:	b50000b3 	cbnz	x19, 401ca4 <__dcigettext+0x19c>
  401c94:	140000df 	b	402010 <__dcigettext+0x508>
  401c98:	54001c2b 	b.lt	40201c <__dcigettext+0x514>  // b.tstop
  401c9c:	f9400273 	ldr	x19, [x19]
  401ca0:	b4001b93 	cbz	x19, 402010 <__dcigettext+0x508>
  401ca4:	91006261 	add	x1, x19, #0x18
  401ca8:	aa1603e0 	mov	x0, x22
  401cac:	94004c05 	bl	414cc0 <strcmp>
  401cb0:	7100001f 	cmp	w0, #0x0
  401cb4:	54ffff21 	b.ne	401c98 <__dcigettext+0x190>  // b.any
  401cb8:	f940067a 	ldr	x26, [x19, #8]
  401cbc:	39400340 	ldrb	w0, [x26]
  401cc0:	7100bc1f 	cmp	w0, #0x2f
  401cc4:	54000220 	b.eq	401d08 <__dcigettext+0x200>  // b.none
  401cc8:	d2800001 	mov	x1, #0x0                   	// #0
  401ccc:	d2800000 	mov	x0, #0x0                   	// #0
  401cd0:	94005a1e 	bl	418548 <__getcwd>
  401cd4:	aa0003f4 	mov	x20, x0
  401cd8:	b4000b80 	cbz	x0, 401e48 <__dcigettext+0x340>
  401cdc:	aa0003e2 	mov	x2, x0
  401ce0:	d0000261 	adrp	x1, 44f000 <_nl_locale_subfreeres+0x1b8>
  401ce4:	aa1a03e3 	mov	x3, x26
  401ce8:	9120a021 	add	x1, x1, #0x828
  401cec:	910363a0 	add	x0, x29, #0xd8
  401cf0:	94001420 	bl	406d70 <___asprintf>
  401cf4:	2a0003f5 	mov	w21, w0
  401cf8:	aa1403e0 	mov	x0, x20
  401cfc:	9400471d 	bl	413970 <__free>
  401d00:	37f81cd5 	tbnz	w21, #31, 402098 <__dcigettext+0x590>
  401d04:	f9406fba 	ldr	x26, [x29, #216]
  401d08:	b0000282 	adrp	x2, 452000 <empty_path_elem+0x8>
  401d0c:	9139c042 	add	x2, x2, #0xe70
  401d10:	b0000295 	adrp	x21, 452000 <empty_path_elem+0x8>
  401d14:	913782a1 	add	x1, x21, #0xde0
  401d18:	2a1903e0 	mov	w0, w25
  401d1c:	d000027b 	adrp	x27, 44f000 <_nl_locale_subfreeres+0x1b8>
  401d20:	3879c855 	ldrb	w21, [x2, w25, sxtw]
  401d24:	8b0102b5 	add	x21, x21, x1
  401d28:	94008dd2 	bl	425470 <__current_locale_name>
  401d2c:	9120c361 	add	x1, x27, #0x830
  401d30:	aa0003f4 	mov	x20, x0
  401d34:	94004be3 	bl	414cc0 <strcmp>
  401d38:	35001a00 	cbnz	w0, 402078 <__dcigettext+0x570>
  401d3c:	aa1603e0 	mov	x0, x22
  401d40:	94004d00 	bl	415140 <__strlen>
  401d44:	aa0003fc 	mov	x28, x0
  401d48:	aa1503e0 	mov	x0, x21
  401d4c:	f90037bc 	str	x28, [x29, #104]
  401d50:	94004cfc 	bl	415140 <__strlen>
  401d54:	8b1c0000 	add	x0, x0, x28
  401d58:	aa1503e1 	mov	x1, x21
  401d5c:	91008c00 	add	x0, x0, #0x23
  401d60:	927cec00 	and	x0, x0, #0xfffffffffffffff0
  401d64:	cb2063ff 	sub	sp, sp, x0
  401d68:	9100eb80 	add	x0, x28, #0x3a
  401d6c:	f9003ba0 	str	x0, [x29, #112]
  401d70:	910003e0 	mov	x0, sp
  401d74:	f90063a0 	str	x0, [x29, #192]
  401d78:	940050a2 	bl	416000 <__stpcpy>
  401d7c:	528005e1 	mov	w1, #0x2f                  	// #47
  401d80:	78001401 	strh	w1, [x0], #1
  401d84:	aa1c03e2 	mov	x2, x28
  401d88:	aa1603e1 	mov	x1, x22
  401d8c:	94005085 	bl	415fa0 <__mempcpy>
  401d90:	528da5c1 	mov	w1, #0x6d2e                	// #27950
  401d94:	72a00de1 	movk	w1, #0x6f, lsl #16
  401d98:	b9000001 	str	w1, [x0]
  401d9c:	aa1403e0 	mov	x0, x20
  401da0:	94004ce8 	bl	415140 <__strlen>
  401da4:	91007c00 	add	x0, x0, #0x1f
  401da8:	927cec00 	and	x0, x0, #0xfffffffffffffff0
  401dac:	cb2063ff 	sub	sp, sp, x0
  401db0:	d0000260 	adrp	x0, 44f000 <_nl_locale_subfreeres+0x1b8>
  401db4:	910003f5 	mov	x21, sp
  401db8:	91212000 	add	x0, x0, #0x848
  401dbc:	f90067a0 	str	x0, [x29, #200]
  401dc0:	b00003e0 	adrp	x0, 47e000 <__FRAME_END__+0x105ac>
  401dc4:	913c0000 	add	x0, x0, #0xf00
  401dc8:	f9004ba0 	str	x0, [x29, #144]
  401dcc:	d503201f 	nop
  401dd0:	39400280 	ldrb	w0, [x20]
  401dd4:	7100e81f 	cmp	w0, #0x3a
  401dd8:	540008e0 	b.eq	401ef4 <__dcigettext+0x3ec>  // b.none
  401ddc:	35000900 	cbnz	w0, 401efc <__dcigettext+0x3f4>
  401de0:	52800860 	mov	w0, #0x43                  	// #67
  401de4:	790002a0 	strh	w0, [x21]
  401de8:	9120c361 	add	x1, x27, #0x830
  401dec:	aa1503e0 	mov	x0, x21
  401df0:	94004bb4 	bl	414cc0 <strcmp>
  401df4:	340002a0 	cbz	w0, 401e48 <__dcigettext+0x340>
  401df8:	f94067a1 	ldr	x1, [x29, #200]
  401dfc:	aa1503e0 	mov	x0, x21
  401e00:	94004bb0 	bl	414cc0 <strcmp>
  401e04:	34000220 	cbz	w0, 401e48 <__dcigettext+0x340>
  401e08:	f94063a2 	ldr	x2, [x29, #192]
  401e0c:	aa1303e3 	mov	x3, x19
  401e10:	aa1503e1 	mov	x1, x21
  401e14:	aa1a03e0 	mov	x0, x26
  401e18:	940000fa 	bl	402200 <_nl_find_domain>
  401e1c:	aa0003fc 	mov	x28, x0
  401e20:	b4fffd80 	cbz	x0, 401dd0 <__dcigettext+0x2c8>
  401e24:	910383a4 	add	x4, x29, #0xe0
  401e28:	52800023 	mov	w3, #0x1                   	// #1
  401e2c:	aa1803e2 	mov	x2, x24
  401e30:	aa1303e1 	mov	x1, x19
  401e34:	97fffcc7 	bl	401150 <_nl_find_msg>
  401e38:	b4000800 	cbz	x0, 401f38 <__dcigettext+0x430>
  401e3c:	aa0003e4 	mov	x4, x0
  401e40:	b100041f 	cmn	x0, #0x1
  401e44:	54000a61 	b.ne	401f90 <__dcigettext+0x488>  // b.any
  401e48:	f9406fa0 	ldr	x0, [x29, #216]
  401e4c:	940046c9 	bl	413970 <__free>
  401e50:	d0000260 	adrp	x0, 44f000 <_nl_locale_subfreeres+0x1b8>
  401e54:	f943f800 	ldr	x0, [x0, #2032]
  401e58:	b4000100 	cbz	x0, 401e78 <__dcigettext+0x370>
  401e5c:	f94057a0 	ldr	x0, [x29, #168]
  401e60:	91398000 	add	x0, x0, #0xe60
  401e64:	9100e000 	add	x0, x0, #0x38
  401e68:	d503201f 	nop
  401e6c:	90000400 	adrp	x0, 481000 <initial+0x40>
  401e70:	91190000 	add	x0, x0, #0x640
  401e74:	d503201f 	nop
  401e78:	a94803a1 	ldp	x1, x0, [x29, #128]
  401e7c:	b940bba2 	ldr	w2, [x29, #184]
  401e80:	b8216802 	str	w2, [x0, x1]
  401e84:	17ffff37 	b	401b60 <__dcigettext+0x58>
  401e88:	b4000196 	cbz	x22, 401eb8 <__dcigettext+0x3b0>
  401e8c:	f00003e1 	adrp	x1, 480000 <__progname_full>
  401e90:	2a0503e0 	mov	w0, w5
  401e94:	f90057a1 	str	x1, [x29, #168]
  401e98:	f90077b6 	str	x22, [x29, #232]
  401e9c:	b900f3a5 	str	w5, [x29, #240]
  401ea0:	f90087bf 	str	xzr, [x29, #264]
  401ea4:	f90093b8 	str	x24, [x29, #288]
  401ea8:	94008d72 	bl	425470 <__current_locale_name>
  401eac:	f9003fa0 	str	x0, [x29, #120]
  401eb0:	f9007fa0 	str	x0, [x29, #248]
  401eb4:	17ffff60 	b	401c34 <__dcigettext+0x12c>
  401eb8:	f00003e0 	adrp	x0, 480000 <__progname_full>
  401ebc:	f90057a0 	str	x0, [x29, #168]
  401ec0:	d00003e0 	adrp	x0, 47f000 <_GLOBAL_OFFSET_TABLE_+0xb8>
  401ec4:	b900f3b9 	str	w25, [x29, #240]
  401ec8:	f90087bf 	str	xzr, [x29, #264]
  401ecc:	f9401816 	ldr	x22, [x0, #48]
  401ed0:	2a1903e0 	mov	w0, w25
  401ed4:	f90077b6 	str	x22, [x29, #232]
  401ed8:	f90093b8 	str	x24, [x29, #288]
  401edc:	94008d65 	bl	425470 <__current_locale_name>
  401ee0:	f9003fa0 	str	x0, [x29, #120]
  401ee4:	f9007fa0 	str	x0, [x29, #248]
  401ee8:	f943f660 	ldr	x0, [x19, #2024]
  401eec:	b5ffe9c0 	cbnz	x0, 401c24 <__dcigettext+0x11c>
  401ef0:	17ffff51 	b	401c34 <__dcigettext+0x12c>
  401ef4:	91000694 	add	x20, x20, #0x1
  401ef8:	17ffffb6 	b	401dd0 <__dcigettext+0x2c8>
  401efc:	aa1503e1 	mov	x1, x21
  401f00:	38001420 	strb	w0, [x1], #1
  401f04:	38401e80 	ldrb	w0, [x20, #1]!
  401f08:	7100e81f 	cmp	w0, #0x3a
  401f0c:	7a401804 	ccmp	w0, #0x0, #0x4, ne  // ne = any
  401f10:	54ffff81 	b.ne	401f00 <__dcigettext+0x3f8>  // b.any
  401f14:	f9404ba0 	ldr	x0, [x29, #144]
  401f18:	3900003f 	strb	wzr, [x1]
  401f1c:	b9400000 	ldr	w0, [x0]
  401f20:	34fff640 	cbz	w0, 401de8 <__dcigettext+0x2e0>
  401f24:	528005e1 	mov	w1, #0x2f                  	// #47
  401f28:	aa1503e0 	mov	x0, x21
  401f2c:	94004b2d 	bl	414be0 <strchr>
  401f30:	b5fff500 	cbnz	x0, 401dd0 <__dcigettext+0x2c8>
  401f34:	17ffffad 	b	401de8 <__dcigettext+0x2e0>
  401f38:	f9401380 	ldr	x0, [x28, #32]
  401f3c:	b4fff4a0 	cbz	x0, 401dd0 <__dcigettext+0x2c8>
  401f40:	d2800005 	mov	x5, #0x0                   	// #0
  401f44:	f90033b4 	str	x20, [x29, #96]
  401f48:	aa0503f4 	mov	x20, x5
  401f4c:	14000005 	b	401f60 <__dcigettext+0x458>
  401f50:	91000694 	add	x20, x20, #0x1
  401f54:	8b140f80 	add	x0, x28, x20, lsl #3
  401f58:	f9401000 	ldr	x0, [x0, #32]
  401f5c:	b4000b20 	cbz	x0, 4020c0 <__dcigettext+0x5b8>
  401f60:	910383a4 	add	x4, x29, #0xe0
  401f64:	52800023 	mov	w3, #0x1                   	// #1
  401f68:	aa1803e2 	mov	x2, x24
  401f6c:	aa1303e1 	mov	x1, x19
  401f70:	97fffc78 	bl	401150 <_nl_find_msg>
  401f74:	b100041f 	cmn	x0, #0x1
  401f78:	54fff680 	b.eq	401e48 <__dcigettext+0x340>  // b.none
  401f7c:	b4fffea0 	cbz	x0, 401f50 <__dcigettext+0x448>
  401f80:	aa0003e4 	mov	x4, x0
  401f84:	2a1403e0 	mov	w0, w20
  401f88:	8b20cf80 	add	x0, x28, w0, sxtw #3
  401f8c:	f940101c 	ldr	x28, [x0, #32]
  401f90:	f9406fa0 	ldr	x0, [x29, #216]
  401f94:	f90067a4 	str	x4, [x29, #200]
  401f98:	94004676 	bl	413970 <__free>
  401f9c:	f9404fa0 	ldr	x0, [x29, #152]
  401fa0:	f94067a4 	ldr	x4, [x29, #200]
  401fa4:	b4000a00 	cbz	x0, 4020e4 <__dcigettext+0x5dc>
  401fa8:	f9404fa0 	ldr	x0, [x29, #152]
  401fac:	90000402 	adrp	x2, 481000 <initial+0x40>
  401fb0:	f94073a1 	ldr	x1, [x29, #224]
  401fb4:	b94f7042 	ldr	w2, [x2, #3952]
  401fb8:	f9400000 	ldr	x0, [x0]
  401fbc:	b9001802 	str	w2, [x0, #24]
  401fc0:	a902101c 	stp	x28, x4, [x0, #32]
  401fc4:	f9001801 	str	x1, [x0, #48]
  401fc8:	a94803a1 	ldp	x1, x0, [x29, #128]
  401fcc:	b940bba2 	ldr	w2, [x29, #184]
  401fd0:	b8216802 	str	w2, [x0, x1]
  401fd4:	b940bfa0 	ldr	w0, [x29, #188]
  401fd8:	35000780 	cbnz	w0, 4020c8 <__dcigettext+0x5c0>
  401fdc:	d0000260 	adrp	x0, 44f000 <_nl_locale_subfreeres+0x1b8>
  401fe0:	f943f800 	ldr	x0, [x0, #2032]
  401fe4:	b4ffdcc0 	cbz	x0, 401b7c <__dcigettext+0x74>
  401fe8:	f94057a0 	ldr	x0, [x29, #168]
  401fec:	f90067a4 	str	x4, [x29, #200]
  401ff0:	91398000 	add	x0, x0, #0xe60
  401ff4:	9100e000 	add	x0, x0, #0x38
  401ff8:	d503201f 	nop
  401ffc:	90000400 	adrp	x0, 481000 <initial+0x40>
  402000:	91190000 	add	x0, x0, #0x640
  402004:	d503201f 	nop
  402008:	f94067a4 	ldr	x4, [x29, #200]
  40200c:	17fffedc 	b	401b7c <__dcigettext+0x74>
  402010:	b000027a 	adrp	x26, 44f000 <_nl_locale_subfreeres+0x1b8>
  402014:	9121435a 	add	x26, x26, #0x850
  402018:	17ffff3c 	b	401d08 <__dcigettext+0x200>
  40201c:	b000027a 	adrp	x26, 44f000 <_nl_locale_subfreeres+0x1b8>
  402020:	d2800013 	mov	x19, #0x0                   	// #0
  402024:	9121435a 	add	x26, x26, #0x850
  402028:	17ffff38 	b	401d08 <__dcigettext+0x200>
  40202c:	b940bfa1 	ldr	w1, [x29, #188]
  402030:	f9401404 	ldr	x4, [x0, #40]
  402034:	35000361 	cbnz	w1, 4020a0 <__dcigettext+0x598>
  402038:	b0000260 	adrp	x0, 44f000 <_nl_locale_subfreeres+0x1b8>
  40203c:	f943f800 	ldr	x0, [x0, #2032]
  402040:	b4000140 	cbz	x0, 402068 <__dcigettext+0x560>
  402044:	f94057a0 	ldr	x0, [x29, #168]
  402048:	f90067a4 	str	x4, [x29, #200]
  40204c:	91398000 	add	x0, x0, #0xe60
  402050:	9100e000 	add	x0, x0, #0x38
  402054:	d503201f 	nop
  402058:	f00003e0 	adrp	x0, 481000 <initial+0x40>
  40205c:	91190000 	add	x0, x0, #0x640
  402060:	d503201f 	nop
  402064:	f94067a4 	ldr	x4, [x29, #200]
  402068:	a94803a1 	ldp	x1, x0, [x29, #128]
  40206c:	b940bba2 	ldr	w2, [x29, #184]
  402070:	b8216802 	str	w2, [x0, x1]
  402074:	17fffec2 	b	401b7c <__dcigettext+0x74>
  402078:	b0000260 	adrp	x0, 44f000 <_nl_locale_subfreeres+0x1b8>
  40207c:	9120e000 	add	x0, x0, #0x838
  402080:	94000eb2 	bl	405b48 <getenv>
  402084:	b4ffe5c0 	cbz	x0, 401d3c <__dcigettext+0x234>
  402088:	39400001 	ldrb	w1, [x0]
  40208c:	7100003f 	cmp	w1, #0x0
  402090:	9a800294 	csel	x20, x20, x0, eq  // eq = none
  402094:	17ffff2a 	b	401d3c <__dcigettext+0x234>
  402098:	d2800004 	mov	x4, #0x0                   	// #0
  40209c:	17fffeb8 	b	401b7c <__dcigettext+0x74>
  4020a0:	f9401005 	ldr	x5, [x0, #32]
  4020a4:	aa0403e2 	mov	x2, x4
  4020a8:	f9401803 	ldr	x3, [x0, #48]
  4020ac:	f9405ba1 	ldr	x1, [x29, #176]
  4020b0:	f94008a0 	ldr	x0, [x5, #16]
  4020b4:	97fffc07 	bl	4010d0 <plural_lookup.isra.2>
  4020b8:	aa0003e4 	mov	x4, x0
  4020bc:	17ffffdf 	b	402038 <__dcigettext+0x530>
  4020c0:	f94033b4 	ldr	x20, [x29, #96]
  4020c4:	17ffff43 	b	401dd0 <__dcigettext+0x2c8>
  4020c8:	f9400b80 	ldr	x0, [x28, #16]
  4020cc:	aa0403e2 	mov	x2, x4
  4020d0:	f9405ba1 	ldr	x1, [x29, #176]
  4020d4:	f94073a3 	ldr	x3, [x29, #224]
  4020d8:	97fffbfe 	bl	4010d0 <plural_lookup.isra.2>
  4020dc:	aa0003e4 	mov	x4, x0
  4020e0:	17ffffbf 	b	401fdc <__dcigettext+0x4d4>
  4020e4:	aa1803e0 	mov	x0, x24
  4020e8:	94004c16 	bl	415140 <__strlen>
  4020ec:	f9403fba 	ldr	x26, [x29, #120]
  4020f0:	91000413 	add	x19, x0, #0x1
  4020f4:	aa1a03e0 	mov	x0, x26
  4020f8:	94004c12 	bl	415140 <__strlen>
  4020fc:	f9403ba1 	ldr	x1, [x29, #112]
  402100:	8b130000 	add	x0, x0, x19
  402104:	8b010000 	add	x0, x0, x1
  402108:	94004482 	bl	413310 <__libc_malloc>
  40210c:	aa0003f4 	mov	x20, x0
  402110:	f94067a4 	ldr	x4, [x29, #200]
  402114:	b4fff5a0 	cbz	x0, 401fc8 <__dcigettext+0x4c0>
  402118:	f94037a0 	ldr	x0, [x29, #104]
  40211c:	aa1303e2 	mov	x2, x19
  402120:	aa1803e1 	mov	x1, x24
  402124:	91000413 	add	x19, x0, #0x1
  402128:	9100e280 	add	x0, x20, #0x38
  40212c:	94004f9d 	bl	415fa0 <__mempcpy>
  402130:	aa0003f5 	mov	x21, x0
  402134:	aa1303e2 	mov	x2, x19
  402138:	aa1603e1 	mov	x1, x22
  40213c:	8b130013 	add	x19, x0, x19
  402140:	97fff844 	bl	400250 <.plt+0x10>
  402144:	aa1a03e1 	mov	x1, x26
  402148:	aa1303e0 	mov	x0, x19
  40214c:	94004b1d 	bl	414dc0 <strcpy>
  402150:	f9000295 	str	x21, [x20]
  402154:	b0000260 	adrp	x0, 44f000 <_nl_locale_subfreeres+0x1b8>
  402158:	f00003e2 	adrp	x2, 481000 <initial+0x40>
  40215c:	f94067a4 	ldr	x4, [x29, #200]
  402160:	f943fc00 	ldr	x0, [x0, #2040]
  402164:	b94f7042 	ldr	w2, [x2, #3952]
  402168:	f94073a1 	ldr	x1, [x29, #224]
  40216c:	b9000a99 	str	w25, [x20, #8]
  402170:	f9000a93 	str	x19, [x20, #16]
  402174:	b9001a82 	str	w2, [x20, #24]
  402178:	a902129c 	stp	x28, x4, [x20, #32]
  40217c:	f9001a81 	str	x1, [x20, #48]
  402180:	b40000c0 	cbz	x0, 402198 <__dcigettext+0x690>
  402184:	f94057a0 	ldr	x0, [x29, #168]
  402188:	91398000 	add	x0, x0, #0xe60
  40218c:	9101c000 	add	x0, x0, #0x70
  402190:	d503201f 	nop
  402194:	f94067a4 	ldr	x4, [x29, #200]
  402198:	f94057a0 	ldr	x0, [x29, #168]
  40219c:	f90067a4 	str	x4, [x29, #200]
  4021a0:	91398015 	add	x21, x0, #0xe60
  4021a4:	f0ffffe0 	adrp	x0, 401000 <plural_eval+0x1c8>
  4021a8:	aa1503e1 	mov	x1, x21
  4021ac:	91014002 	add	x2, x0, #0x50
  4021b0:	aa1403e0 	mov	x0, x20
  4021b4:	94005bd5 	bl	419108 <__tsearch>
  4021b8:	aa0003f3 	mov	x19, x0
  4021bc:	b0000260 	adrp	x0, 44f000 <_nl_locale_subfreeres+0x1b8>
  4021c0:	f94067a4 	ldr	x4, [x29, #200]
  4021c4:	f943f800 	ldr	x0, [x0, #2032]
  4021c8:	b4000080 	cbz	x0, 4021d8 <__dcigettext+0x6d0>
  4021cc:	9101c2a0 	add	x0, x21, #0x70
  4021d0:	d503201f 	nop
  4021d4:	f94067a4 	ldr	x4, [x29, #200]
  4021d8:	b4000093 	cbz	x19, 4021e8 <__dcigettext+0x6e0>
  4021dc:	f9400260 	ldr	x0, [x19]
  4021e0:	eb14001f 	cmp	x0, x20
  4021e4:	54ffef20 	b.eq	401fc8 <__dcigettext+0x4c0>  // b.none
  4021e8:	f90067a4 	str	x4, [x29, #200]
  4021ec:	aa1403e0 	mov	x0, x20
  4021f0:	940045e0 	bl	413970 <__free>
  4021f4:	f94067a4 	ldr	x4, [x29, #200]
  4021f8:	17ffff74 	b	401fc8 <__dcigettext+0x4c0>
  4021fc:	94006009 	bl	41a220 <__stack_chk_fail>

0000000000402200 <_nl_find_domain>:
  402200:	d102c3ff 	sub	sp, sp, #0xb0
  402204:	b0000265 	adrp	x5, 44f000 <_nl_locale_subfreeres+0x1b8>
  402208:	a9027bfd 	stp	x29, x30, [sp, #32]
  40220c:	910083fd 	add	x29, sp, #0x20
  402210:	a90353f3 	stp	x19, x20, [sp, #48]
  402214:	aa0003f4 	mov	x20, x0
  402218:	a9045bf5 	stp	x21, x22, [sp, #64]
  40221c:	900003f5 	adrp	x21, 47e000 <__FRAME_END__+0x105ac>
  402220:	f9443ca0 	ldr	x0, [x5, #2168]
  402224:	9128e2a4 	add	x4, x21, #0xa38
  402228:	f9400085 	ldr	x5, [x4]
  40222c:	f90047a5 	str	x5, [x29, #136]
  402230:	d2800005 	mov	x5, #0x0                   	// #0
  402234:	a90563f7 	stp	x23, x24, [sp, #80]
  402238:	a9066bf9 	stp	x25, x26, [sp, #96]
  40223c:	aa0103f8 	mov	x24, x1
  402240:	f9003ffc 	str	x28, [sp, #120]
  402244:	aa0303f7 	mov	x23, x3
  402248:	d00003f6 	adrp	x22, 480000 <__progname_full>
  40224c:	aa0203fc 	mov	x28, x2
  402250:	b4000060 	cbz	x0, 40225c <_nl_find_domain+0x5c>
  402254:	913c22c0 	add	x0, x22, #0xf08
  402258:	d503201f 	nop
  40225c:	aa1403e0 	mov	x0, x20
  402260:	94004bb8 	bl	415140 <__strlen>
  402264:	a90073ff 	stp	xzr, x28, [sp]
  402268:	b0000279 	adrp	x25, 44f000 <_nl_locale_subfreeres+0x1b8>
  40226c:	b90013ff 	str	wzr, [sp, #16]
  402270:	913c22da 	add	x26, x22, #0xf08
  402274:	91000402 	add	x2, x0, #0x1
  402278:	d2800007 	mov	x7, #0x0                   	// #0
  40227c:	d2800006 	mov	x6, #0x0                   	// #0
  402280:	d2800005 	mov	x5, #0x0                   	// #0
  402284:	aa1803e4 	mov	x4, x24
  402288:	52800003 	mov	w3, #0x0                   	// #0
  40228c:	aa1403e1 	mov	x1, x20
  402290:	9100e340 	add	x0, x26, #0x38
  402294:	940006a9 	bl	403d38 <_nl_make_l10nflist>
  402298:	aa0003f3 	mov	x19, x0
  40229c:	f9444320 	ldr	x0, [x25, #2176]
  4022a0:	b4000060 	cbz	x0, 4022ac <_nl_find_domain+0xac>
  4022a4:	aa1a03e0 	mov	x0, x26
  4022a8:	d503201f 	nop
  4022ac:	b40004f3 	cbz	x19, 402348 <_nl_find_domain+0x148>
  4022b0:	b9400a60 	ldr	w0, [x19, #8]
  4022b4:	7100001f 	cmp	w0, #0x0
  4022b8:	5400040d 	b.le	402338 <_nl_find_domain+0x138>
  4022bc:	f9400a60 	ldr	x0, [x19, #16]
  4022c0:	b40001e0 	cbz	x0, 4022fc <_nl_find_domain+0xfc>
  4022c4:	9128e2b5 	add	x21, x21, #0xa38
  4022c8:	aa1303e0 	mov	x0, x19
  4022cc:	f94047a2 	ldr	x2, [x29, #136]
  4022d0:	f94002a1 	ldr	x1, [x21]
  4022d4:	ca010041 	eor	x1, x2, x1
  4022d8:	b5000de1 	cbnz	x1, 402494 <_nl_find_domain+0x294>
  4022dc:	a9427bfd 	ldp	x29, x30, [sp, #32]
  4022e0:	a94353f3 	ldp	x19, x20, [sp, #48]
  4022e4:	a9445bf5 	ldp	x21, x22, [sp, #64]
  4022e8:	a94563f7 	ldp	x23, x24, [sp, #80]
  4022ec:	a9466bf9 	ldp	x25, x26, [sp, #96]
  4022f0:	f9403ffc 	ldr	x28, [sp, #120]
  4022f4:	9102c3ff 	add	sp, sp, #0xb0
  4022f8:	d65f03c0 	ret
  4022fc:	f9401260 	ldr	x0, [x19, #32]
  402300:	b4fffe20 	cbz	x0, 4022c4 <_nl_find_domain+0xc4>
  402304:	91008274 	add	x20, x19, #0x20
  402308:	14000006 	b	402320 <_nl_find_domain+0x120>
  40230c:	f9400280 	ldr	x0, [x20]
  402310:	f9400800 	ldr	x0, [x0, #16]
  402314:	b5fffd80 	cbnz	x0, 4022c4 <_nl_find_domain+0xc4>
  402318:	f8408e80 	ldr	x0, [x20, #8]!
  40231c:	b4fffd40 	cbz	x0, 4022c4 <_nl_find_domain+0xc4>
  402320:	b9400801 	ldr	w1, [x0, #8]
  402324:	7100003f 	cmp	w1, #0x0
  402328:	54ffff2c 	b.gt	40230c <_nl_find_domain+0x10c>
  40232c:	aa1703e1 	mov	x1, x23
  402330:	9400005c 	bl	4024a0 <_nl_load_domain>
  402334:	17fffff6 	b	40230c <_nl_find_domain+0x10c>
  402338:	aa1703e1 	mov	x1, x23
  40233c:	aa1303e0 	mov	x0, x19
  402340:	94000058 	bl	4024a0 <_nl_load_domain>
  402344:	17ffffde 	b	4022bc <_nl_find_domain+0xbc>
  402348:	f9002bbb 	str	x27, [x29, #80]
  40234c:	aa1803e0 	mov	x0, x24
  402350:	940005fe 	bl	403b48 <_nl_expand_alias>
  402354:	aa0003fb 	mov	x27, x0
  402358:	b4000140 	cbz	x0, 402380 <_nl_find_domain+0x180>
  40235c:	94004b79 	bl	415140 <__strlen>
  402360:	9100041a 	add	x26, x0, #0x1
  402364:	aa1a03e0 	mov	x0, x26
  402368:	940043ea 	bl	413310 <__libc_malloc>
  40236c:	aa0003f8 	mov	x24, x0
  402370:	b4000600 	cbz	x0, 402430 <_nl_find_domain+0x230>
  402374:	aa1a03e2 	mov	x2, x26
  402378:	aa1b03e1 	mov	x1, x27
  40237c:	97fff7b5 	bl	400250 <.plt+0x10>
  402380:	910203a5 	add	x5, x29, #0x80
  402384:	9101e3a4 	add	x4, x29, #0x78
  402388:	9101c3a3 	add	x3, x29, #0x70
  40238c:	9101a3a2 	add	x2, x29, #0x68
  402390:	910183a1 	add	x1, x29, #0x60
  402394:	aa1803e0 	mov	x0, x24
  402398:	9400080e 	bl	4043d0 <_nl_explode_name>
  40239c:	2a0003fa 	mov	w26, w0
  4023a0:	3100041f 	cmn	w0, #0x1
  4023a4:	54000460 	b.eq	402430 <_nl_find_domain+0x230>  // b.none
  4023a8:	b0000260 	adrp	x0, 44f000 <_nl_locale_subfreeres+0x1b8>
  4023ac:	f9444400 	ldr	x0, [x0, #2184]
  4023b0:	b4000060 	cbz	x0, 4023bc <_nl_find_domain+0x1bc>
  4023b4:	913c22c0 	add	x0, x22, #0xf08
  4023b8:	d503201f 	nop
  4023bc:	aa1403e0 	mov	x0, x20
  4023c0:	94004b60 	bl	415140 <__strlen>
  4023c4:	a9460ba4 	ldp	x4, x2, [x29, #96]
  4023c8:	52800021 	mov	w1, #0x1                   	// #1
  4023cc:	a9471ba5 	ldp	x5, x6, [x29, #112]
  4023d0:	a90073e2 	stp	x2, x28, [sp]
  4023d4:	f94043a7 	ldr	x7, [x29, #128]
  4023d8:	913c22d6 	add	x22, x22, #0xf08
  4023dc:	b90013e1 	str	w1, [sp, #16]
  4023e0:	91000402 	add	x2, x0, #0x1
  4023e4:	2a1a03e3 	mov	w3, w26
  4023e8:	aa1403e1 	mov	x1, x20
  4023ec:	9100e2c0 	add	x0, x22, #0x38
  4023f0:	94000652 	bl	403d38 <_nl_make_l10nflist>
  4023f4:	aa0003f3 	mov	x19, x0
  4023f8:	f9444320 	ldr	x0, [x25, #2176]
  4023fc:	b4000060 	cbz	x0, 402408 <_nl_find_domain+0x208>
  402400:	aa1603e0 	mov	x0, x22
  402404:	d503201f 	nop
  402408:	b4000133 	cbz	x19, 40242c <_nl_find_domain+0x22c>
  40240c:	b9400a60 	ldr	w0, [x19, #8]
  402410:	7100001f 	cmp	w0, #0x0
  402414:	5400038d 	b.le	402484 <_nl_find_domain+0x284>
  402418:	f9400a60 	ldr	x0, [x19, #16]
  40241c:	b4000160 	cbz	x0, 402448 <_nl_find_domain+0x248>
  402420:	b400007b 	cbz	x27, 40242c <_nl_find_domain+0x22c>
  402424:	aa1803e0 	mov	x0, x24
  402428:	94004552 	bl	413970 <__free>
  40242c:	3700007a 	tbnz	w26, #0, 402438 <_nl_find_domain+0x238>
  402430:	f9402bbb 	ldr	x27, [x29, #80]
  402434:	17ffffa4 	b	4022c4 <_nl_find_domain+0xc4>
  402438:	f94043a0 	ldr	x0, [x29, #128]
  40243c:	9400454d 	bl	413970 <__free>
  402440:	f9402bbb 	ldr	x27, [x29, #80]
  402444:	17ffffa0 	b	4022c4 <_nl_find_domain+0xc4>
  402448:	f9401260 	ldr	x0, [x19, #32]
  40244c:	b4fffea0 	cbz	x0, 402420 <_nl_find_domain+0x220>
  402450:	91008274 	add	x20, x19, #0x20
  402454:	14000006 	b	40246c <_nl_find_domain+0x26c>
  402458:	f9400280 	ldr	x0, [x20]
  40245c:	f9400800 	ldr	x0, [x0, #16]
  402460:	b5fffe00 	cbnz	x0, 402420 <_nl_find_domain+0x220>
  402464:	f8408e80 	ldr	x0, [x20, #8]!
  402468:	b4fffdc0 	cbz	x0, 402420 <_nl_find_domain+0x220>
  40246c:	b9400801 	ldr	w1, [x0, #8]
  402470:	7100003f 	cmp	w1, #0x0
  402474:	54ffff2c 	b.gt	402458 <_nl_find_domain+0x258>
  402478:	aa1703e1 	mov	x1, x23
  40247c:	94000009 	bl	4024a0 <_nl_load_domain>
  402480:	17fffff6 	b	402458 <_nl_find_domain+0x258>
  402484:	aa1703e1 	mov	x1, x23
  402488:	aa1303e0 	mov	x0, x19
  40248c:	94000005 	bl	4024a0 <_nl_load_domain>
  402490:	17ffffe2 	b	402418 <_nl_find_domain+0x218>
  402494:	f9002bbb 	str	x27, [x29, #80]
  402498:	94005f62 	bl	41a220 <__stack_chk_fail>
  40249c:	00000000 	.inst	0x00000000 ; undefined

00000000004024a0 <_nl_load_domain>:
  4024a0:	a9a77bfd 	stp	x29, x30, [sp, #-400]!
  4024a4:	910003fd 	mov	x29, sp
  4024a8:	f9002bfb 	str	x27, [sp, #80]
  4024ac:	d00003fb 	adrp	x27, 480000 <__progname_full>
  4024b0:	913d2362 	add	x2, x27, #0xf48
  4024b4:	f90023f9 	str	x25, [sp, #64]
  4024b8:	900003f9 	adrp	x25, 47e000 <__FRAME_END__+0x105ac>
  4024bc:	9128e323 	add	x3, x25, #0xa38
  4024c0:	f9400064 	ldr	x4, [x3]
  4024c4:	f900c7a4 	str	x4, [x29, #392]
  4024c8:	d2800004 	mov	x4, #0x0                   	// #0
  4024cc:	a90153f3 	stp	x19, x20, [sp, #16]
  4024d0:	f90013f5 	str	x21, [sp, #32]
  4024d4:	d53bd055 	mrs	x21, tpidr_el0
  4024d8:	f9001bf7 	str	x23, [sp, #48]
  4024dc:	d11bc2b4 	sub	x20, x21, #0x6f0
  4024e0:	f9400443 	ldr	x3, [x2, #8]
  4024e4:	aa0103f3 	mov	x19, x1
  4024e8:	aa0003f7 	mov	x23, x0
  4024ec:	eb14007f 	cmp	x3, x20
  4024f0:	54000140 	b.eq	402518 <_nl_load_domain+0x78>  // b.none
  4024f4:	52800020 	mov	w0, #0x1                   	// #1
  4024f8:	885ffc41 	ldaxr	w1, [x2]
  4024fc:	35000061 	cbnz	w1, 402508 <_nl_load_domain+0x68>
  402500:	88037c40 	stxr	w3, w0, [x2]
  402504:	35ffffa3 	cbnz	w3, 4024f8 <_nl_load_domain+0x58>
  402508:	7100003f 	cmp	w1, #0x0
  40250c:	54002701 	b.ne	4029ec <_nl_load_domain+0x54c>  // b.any
  402510:	913d2360 	add	x0, x27, #0xf48
  402514:	f9000414 	str	x20, [x0, #8]
  402518:	913d2374 	add	x20, x27, #0xf48
  40251c:	b9400ae0 	ldr	w0, [x23, #8]
  402520:	b9400681 	ldr	w1, [x20, #4]
  402524:	11000421 	add	w1, w1, #0x1
  402528:	b9000681 	str	w1, [x20, #4]
  40252c:	35000200 	cbnz	w0, 40256c <_nl_load_domain+0xcc>
  402530:	f94002e0 	ldr	x0, [x23]
  402534:	12800002 	mov	w2, #0xffffffff            	// #-1
  402538:	b9000ae2 	str	w2, [x23, #8]
  40253c:	f9000aff 	str	xzr, [x23, #16]
  402540:	b4000120 	cbz	x0, 402564 <_nl_load_domain+0xc4>
  402544:	f90017b6 	str	x22, [x29, #40]
  402548:	52800001 	mov	w1, #0x0                   	// #0
  40254c:	94005671 	bl	417f10 <__open64_nocancel>
  402550:	2a0003f6 	mov	w22, w0
  402554:	3100041f 	cmn	w0, #0x1
  402558:	54000441 	b.ne	4025e0 <_nl_load_domain+0x140>  // b.any
  40255c:	b9400681 	ldr	w1, [x20, #4]
  402560:	f94017b6 	ldr	x22, [x29, #40]
  402564:	52800020 	mov	w0, #0x1                   	// #1
  402568:	b9000ae0 	str	w0, [x23, #8]
  40256c:	913d237b 	add	x27, x27, #0xf48
  402570:	51000421 	sub	w1, w1, #0x1
  402574:	b9000761 	str	w1, [x27, #4]
  402578:	340001a1 	cbz	w1, 4025ac <_nl_load_domain+0x10c>
  40257c:	9128e327 	add	x7, x25, #0xa38
  402580:	f940c7a1 	ldr	x1, [x29, #392]
  402584:	f94000e0 	ldr	x0, [x7]
  402588:	ca000020 	eor	x0, x1, x0
  40258c:	b50038c0 	cbnz	x0, 402ca4 <_nl_load_domain+0x804>
  402590:	a94153f3 	ldp	x19, x20, [sp, #16]
  402594:	f94013f5 	ldr	x21, [sp, #32]
  402598:	f9401bf7 	ldr	x23, [sp, #48]
  40259c:	f94023f9 	ldr	x25, [sp, #64]
  4025a0:	f9402bfb 	ldr	x27, [sp, #80]
  4025a4:	a8d97bfd 	ldp	x29, x30, [sp], #400
  4025a8:	d65f03c0 	ret
  4025ac:	f900077f 	str	xzr, [x27, #8]
  4025b0:	885f7f60 	ldxr	w0, [x27]
  4025b4:	8802ff61 	stlxr	w2, w1, [x27]
  4025b8:	35ffffc2 	cbnz	w2, 4025b0 <_nl_load_domain+0x110>
  4025bc:	7100041f 	cmp	w0, #0x1
  4025c0:	54fffded 	b.le	40257c <_nl_load_domain+0xdc>
  4025c4:	aa1b03e0 	mov	x0, x27
  4025c8:	d2801021 	mov	x1, #0x81                  	// #129
  4025cc:	d2800022 	mov	x2, #0x1                   	// #1
  4025d0:	d2800003 	mov	x3, #0x0                   	// #0
  4025d4:	d2800c48 	mov	x8, #0x62                  	// #98
  4025d8:	d4000001 	svc	#0x0
  4025dc:	17ffffe8 	b	40257c <_nl_load_domain+0xdc>
  4025e0:	2a0003e1 	mov	w1, w0
  4025e4:	910423a2 	add	x2, x29, #0x108
  4025e8:	52800000 	mov	w0, #0x0                   	// #0
  4025ec:	940055e7 	bl	417d88 <__fxstat>
  4025f0:	b900efa0 	str	w0, [x29, #236]
  4025f4:	35001f00 	cbnz	w0, 4029d4 <_nl_load_domain+0x534>
  4025f8:	f90027ba 	str	x26, [x29, #72]
  4025fc:	f9409fba 	ldr	x26, [x29, #312]
  402600:	f100bf5f 	cmp	x26, #0x2f
  402604:	54002a49 	b.ls	402b4c <_nl_load_domain+0x6ac>  // b.plast
  402608:	f9001fb8 	str	x24, [x29, #56]
  40260c:	d2800005 	mov	x5, #0x0                   	// #0
  402610:	f9002fbc 	str	x28, [x29, #88]
  402614:	2a1603e4 	mov	w4, w22
  402618:	52800043 	mov	w3, #0x2                   	// #2
  40261c:	52800022 	mov	w2, #0x1                   	// #1
  402620:	aa1a03e1 	mov	x1, x26
  402624:	d2800000 	mov	x0, #0x0                   	// #0
  402628:	940059dc 	bl	418d98 <__mmap64>
  40262c:	aa0003fc 	mov	x28, x0
  402630:	b100041f 	cmn	x0, #0x1
  402634:	540023e0 	b.eq	402ab0 <_nl_load_domain+0x610>  // b.none
  402638:	2a1603e0 	mov	w0, w22
  40263c:	940057b5 	bl	418510 <__close_nocancel>
  402640:	b9400398 	ldr	w24, [x28]
  402644:	52825bc1 	mov	w1, #0x12de                	// #4830
  402648:	72b2a081 	movk	w1, #0x9504, lsl #16
  40264c:	528092a0 	mov	w0, #0x495                 	// #1173
  402650:	6b01031f 	cmp	w24, w1
  402654:	72bbc240 	movk	w0, #0xde12, lsl #16
  402658:	1a9f07f5 	cset	w21, ne  // ne = any
  40265c:	710002bf 	cmp	w21, #0x0
  402660:	7a401304 	ccmp	w24, w0, #0x4, ne  // ne = any
  402664:	54002ca1 	b.ne	402bf8 <_nl_load_domain+0x758>  // b.any
  402668:	52800020 	mov	w0, #0x1                   	// #1
  40266c:	b900efa0 	str	w0, [x29, #236]
  402670:	d2801900 	mov	x0, #0xc8                  	// #200
  402674:	94004327 	bl	413310 <__libc_malloc>
  402678:	aa0003f6 	mov	x22, x0
  40267c:	b40018c0 	cbz	x0, 402994 <_nl_load_domain+0x4f4>
  402680:	b940efa0 	ldr	w0, [x29, #236]
  402684:	52825bc1 	mov	w1, #0x12de                	// #4830
  402688:	f90002dc 	str	x28, [x22]
  40268c:	72b2a081 	movk	w1, #0x9504, lsl #16
  402690:	b9000ac0 	str	w0, [x22, #8]
  402694:	6b01031f 	cmp	w24, w1
  402698:	b9400780 	ldr	w0, [x28, #4]
  40269c:	f9000ada 	str	x26, [x22, #16]
  4026a0:	b9001ad5 	str	w21, [x22, #24]
  4026a4:	f90012df 	str	xzr, [x22, #32]
  4026a8:	f9000af6 	str	x22, [x23, #16]
  4026ac:	54001a61 	b.ne	4029f8 <_nl_load_domain+0x558>  // b.any
  4026b0:	13107c01 	asr	w1, w0, #16
  4026b4:	7100043f 	cmp	w1, #0x1
  4026b8:	54001f88 	b.hi	402aa8 <_nl_load_domain+0x608>  // b.pmore
  4026bc:	29425381 	ldp	w1, w20, [x28, #16]
  4026c0:	29410f84 	ldp	w4, w3, [x28, #8]
  4026c4:	8b010381 	add	x1, x28, x1
  4026c8:	b9002ac4 	str	w4, [x22, #40]
  4026cc:	71000a9f 	cmp	w20, #0x2
  4026d0:	8b030383 	add	x3, x28, x3
  4026d4:	a90306c3 	stp	x3, x1, [x22, #48]
  4026d8:	b9005ad4 	str	w20, [x22, #88]
  4026dc:	54001b69 	b.ls	402a48 <_nl_load_domain+0x5a8>  // b.plast
  4026e0:	b9401b81 	ldr	w1, [x28, #24]
  4026e4:	8b010381 	add	x1, x28, x1
  4026e8:	f90032c1 	str	x1, [x22, #96]
  4026ec:	b9006ad5 	str	w21, [x22, #104]
  4026f0:	12003c00 	and	w0, w0, #0xffff
  4026f4:	34001b20 	cbz	w0, 402a58 <_nl_load_domain+0x5b8>
  4026f8:	b4001c01 	cbz	x1, 402a78 <_nl_load_domain+0x5d8>
  4026fc:	52825bc0 	mov	w0, #0x12de                	// #4830
  402700:	72b2a080 	movk	w0, #0x9504, lsl #16
  402704:	6b00031f 	cmp	w24, w0
  402708:	b9402780 	ldr	w0, [x28, #36]
  40270c:	54002660 	b.eq	402bd8 <_nl_load_domain+0x738>  // b.none
  402710:	5ac00800 	rev	w0, w0
  402714:	b900eba0 	str	w0, [x29, #232]
  402718:	34001a00 	cbz	w0, 402a58 <_nl_load_domain+0x5b8>
  40271c:	2943d780 	ldp	w0, w21, [x28, #28]
  402720:	5ac00ab5 	rev	w21, w21
  402724:	5ac00800 	rev	w0, w0
  402728:	b900dba0 	str	w0, [x29, #216]
  40272c:	b940dba0 	ldr	w0, [x29, #216]
  402730:	d2800101 	mov	x1, #0x8                   	// #8
  402734:	940045ed 	bl	413ee8 <__calloc>
  402738:	f90073a0 	str	x0, [x29, #224]
  40273c:	b40019e0 	cbz	x0, 402a78 <_nl_load_domain+0x5d8>
  402740:	b940dba0 	ldr	w0, [x29, #216]
  402744:	34000760 	cbz	w0, 402830 <_nl_load_domain+0x390>
  402748:	51000404 	sub	w4, w0, #0x1
  40274c:	8b150395 	add	x21, x28, x21
  402750:	910022a0 	add	x0, x21, #0x8
  402754:	f94073a3 	ldr	x3, [x29, #224]
  402758:	8b244c04 	add	x4, x0, w4, uxtw #3
  40275c:	b0000260 	adrp	x0, 44f000 <_nl_locale_subfreeres+0x1b8>
  402760:	9123c009 	add	x9, x0, #0x8f0
  402764:	b0000260 	adrp	x0, 44f000 <_nl_locale_subfreeres+0x1b8>
  402768:	9123e008 	add	x8, x0, #0x8f8
  40276c:	d0000320 	adrp	x0, 468000 <__sys_errlist_internal+0x1f0>
  402770:	911f4007 	add	x7, x0, #0x7d0
  402774:	b0000260 	adrp	x0, 44f000 <_nl_locale_subfreeres+0x1b8>
  402778:	b000026b 	adrp	x11, 44f000 <_nl_locale_subfreeres+0x1b8>
  40277c:	b0000270 	adrp	x16, 44f000 <_nl_locale_subfreeres+0x1b8>
  402780:	b000026f 	adrp	x15, 44f000 <_nl_locale_subfreeres+0x1b8>
  402784:	b000026e 	adrp	x14, 44f000 <_nl_locale_subfreeres+0x1b8>
  402788:	b000026d 	adrp	x13, 44f000 <_nl_locale_subfreeres+0x1b8>
  40278c:	9122a006 	add	x6, x0, #0x8a8
  402790:	b000027e 	adrp	x30, 44f000 <_nl_locale_subfreeres+0x1b8>
  402794:	b0000260 	adrp	x0, 44f000 <_nl_locale_subfreeres+0x1b8>
  402798:	52825bca 	mov	w10, #0x12de                	// #4830
  40279c:	9122e000 	add	x0, x0, #0x8b8
  4027a0:	9123216b 	add	x11, x11, #0x8c8
  4027a4:	91236210 	add	x16, x16, #0x8d8
  4027a8:	912381ef 	add	x15, x15, #0x8e0
  4027ac:	912341ce 	add	x14, x14, #0x8d0
  4027b0:	9123a1ad 	add	x13, x13, #0x8e8
  4027b4:	9122c3de 	add	x30, x30, #0x8b0
  4027b8:	f9006ba0 	str	x0, [x29, #208]
  4027bc:	72b2a08a 	movk	w10, #0x9504, lsl #16
  4027c0:	b0000260 	adrp	x0, 44f000 <_nl_locale_subfreeres+0x1b8>
  4027c4:	b900c3b4 	str	w20, [x29, #192]
  4027c8:	91230000 	add	x0, x0, #0x8c0
  4027cc:	f90067a0 	str	x0, [x29, #200]
  4027d0:	6b0a031f 	cmp	w24, w10
  4027d4:	b94006a0 	ldr	w0, [x21, #4]
  4027d8:	54001b40 	b.eq	402b40 <_nl_load_domain+0x6a0>  // b.none
  4027dc:	b94002a1 	ldr	w1, [x21]
  4027e0:	5ac00800 	rev	w0, w0
  4027e4:	8b000380 	add	x0, x28, x0
  4027e8:	5ac00821 	rev	w1, w1
  4027ec:	340021e1 	cbz	w1, 402c28 <_nl_load_domain+0x788>
  4027f0:	51000421 	sub	w1, w1, #0x1
  4027f4:	38614801 	ldrb	w1, [x0, w1, uxtw]
  4027f8:	35002181 	cbnz	w1, 402c28 <_nl_load_domain+0x788>
  4027fc:	39400001 	ldrb	w1, [x0]
  402800:	7101403f 	cmp	w1, #0x50
  402804:	54001a80 	b.eq	402b54 <_nl_load_domain+0x6b4>  // b.none
  402808:	7101243f 	cmp	w1, #0x49
  40280c:	540047a1 	b.ne	403100 <_nl_load_domain+0xc60>  // b.any
  402810:	39400400 	ldrb	w0, [x0, #1]
  402814:	7100001f 	cmp	w0, #0x0
  402818:	9a9f0161 	csel	x1, x11, xzr, eq  // eq = none
  40281c:	f8008461 	str	x1, [x3], #8
  402820:	910022b5 	add	x21, x21, #0x8
  402824:	eb15009f 	cmp	x4, x21
  402828:	54fffd41 	b.ne	4027d0 <_nl_load_domain+0x330>  // b.any
  40282c:	b940c3b4 	ldr	w20, [x29, #192]
  402830:	52825bc0 	mov	w0, #0x12de                	// #4830
  402834:	72b2a080 	movk	w0, #0x9504, lsl #16
  402838:	6b00031f 	cmp	w24, w0
  40283c:	29450381 	ldp	w1, w0, [x28, #40]
  402840:	540022c0 	b.eq	402c98 <_nl_load_domain+0x7f8>  // b.none
  402844:	5ac00821 	rev	w1, w1
  402848:	5ac00800 	rev	w0, w0
  40284c:	8b010381 	add	x1, x28, x1
  402850:	f9005ba1 	str	x1, [x29, #176]
  402854:	b940eba1 	ldr	w1, [x29, #232]
  402858:	8b000383 	add	x3, x28, x0
  40285c:	f9405ba5 	ldr	x5, [x29, #176]
  402860:	d37e7e84 	ubfiz	x4, x20, #2, #32
  402864:	51000422 	sub	w2, w1, #0x1
  402868:	a909ebb6 	stp	x22, x26, [x29, #152]
  40286c:	d2800081 	mov	x1, #0x4                   	// #4
  402870:	f94073b6 	ldr	x22, [x29, #224]
  402874:	b940dbb5 	ldr	w21, [x29, #216]
  402878:	8b224820 	add	x0, x1, w2, uxtw #2
  40287c:	f9006fb7 	str	x23, [x29, #216]
  402880:	aa0503fa 	mov	x26, x5
  402884:	aa0303f7 	mov	x23, x3
  402888:	8b050000 	add	x0, x0, x5
  40288c:	a90893b3 	stp	x19, x4, [x29, #136]
  402890:	f90057a3 	str	x3, [x29, #168]
  402894:	a90b93a0 	stp	x0, x4, [x29, #184]
  402898:	f90067bc 	str	x28, [x29, #200]
  40289c:	b900d3bf 	str	wzr, [x29, #208]
  4028a0:	d2800014 	mov	x20, #0x0                   	// #0
  4028a4:	52825bc0 	mov	w0, #0x12de                	// #4830
  4028a8:	72b2a080 	movk	w0, #0x9504, lsl #16
  4028ac:	6b00031f 	cmp	w24, w0
  4028b0:	540019e0 	b.eq	402bec <_nl_load_domain+0x74c>  // b.none
  4028b4:	b4003f94 	cbz	x20, 4030a4 <_nl_load_domain+0xc04>
  4028b8:	b94002e0 	ldr	w0, [x23]
  4028bc:	5ac00801 	rev	w1, w0
  4028c0:	f94067a0 	ldr	x0, [x29, #200]
  4028c4:	d2800013 	mov	x19, #0x0                   	// #0
  4028c8:	8b010001 	add	x1, x0, x1
  4028cc:	b9400820 	ldr	w0, [x1, #8]
  4028d0:	3100041f 	cmn	w0, #0x1
  4028d4:	1a9f07e0 	cset	w0, ne  // ne = any
  4028d8:	35001b20 	cbnz	w0, 402c3c <_nl_load_domain+0x79c>
  4028dc:	9103e3a0 	add	x0, x29, #0xf8
  4028e0:	f8347813 	str	x19, [x0, x20, lsl #3]
  4028e4:	b4001a94 	cbz	x20, 402c34 <_nl_load_domain+0x794>
  4028e8:	b940d3a0 	ldr	w0, [x29, #208]
  4028ec:	f94083a1 	ldr	x1, [x29, #256]
  4028f0:	11000400 	add	w0, w0, #0x1
  4028f4:	b900d3a0 	str	w0, [x29, #208]
  4028f8:	f9407fa0 	ldr	x0, [x29, #248]
  4028fc:	8b010000 	add	x0, x0, x1
  402900:	f94063a1 	ldr	x1, [x29, #192]
  402904:	8b000020 	add	x0, x1, x0
  402908:	f90063a0 	str	x0, [x29, #192]
  40290c:	f9405fa0 	ldr	x0, [x29, #184]
  402910:	9100135a 	add	x26, x26, #0x4
  402914:	910012f7 	add	x23, x23, #0x4
  402918:	eb1a001f 	cmp	x0, x26
  40291c:	54fffc21 	b.ne	4028a0 <_nl_load_domain+0x400>  // b.any
  402920:	b940d3a0 	ldr	w0, [x29, #208]
  402924:	f94047b3 	ldr	x19, [x29, #136]
  402928:	a949ebb6 	ldp	x22, x26, [x29, #152]
  40292c:	f94067bc 	ldr	x28, [x29, #200]
  402930:	f9406fb7 	ldr	x23, [x29, #216]
  402934:	35001fc0 	cbnz	w0, 402d2c <_nl_load_domain+0x88c>
  402938:	b90042df 	str	wzr, [x22, #64]
  40293c:	a904fedf 	stp	xzr, xzr, [x22, #72]
  402940:	f94073a0 	ldr	x0, [x29, #224]
  402944:	9400440b 	bl	413970 <__free>
  402948:	b0000260 	adrp	x0, 44f000 <_nl_locale_subfreeres+0x1b8>
  40294c:	a9077edf 	stp	xzr, xzr, [x22, #112]
  402950:	f9444800 	ldr	x0, [x0, #2192]
  402954:	b4000080 	cbz	x0, 402964 <_nl_load_domain+0x4c4>
  402958:	d2800001 	mov	x1, #0x0                   	// #0
  40295c:	910202c0 	add	x0, x22, #0x80
  402960:	d503201f 	nop
  402964:	b00002e2 	adrp	x2, 45f000 <translit_from_idx+0x1228>
  402968:	9103c3a4 	add	x4, x29, #0xf0
  40296c:	52800003 	mov	w3, #0x0                   	// #0
  402970:	91384042 	add	x2, x2, #0xe10
  402974:	aa1303e1 	mov	x1, x19
  402978:	aa1703e0 	mov	x0, x23
  40297c:	97fff9f5 	bl	401150 <_nl_find_msg>
  402980:	b100041f 	cmn	x0, #0x1
  402984:	54000700 	b.eq	402a64 <_nl_load_domain+0x5c4>  // b.none
  402988:	910302c2 	add	x2, x22, #0xc0
  40298c:	9102e2c1 	add	x1, x22, #0xb8
  402990:	94000954 	bl	404ee0 <__gettext_extract_plural>
  402994:	913d2360 	add	x0, x27, #0xf48
  402998:	b9400401 	ldr	w1, [x0, #4]
  40299c:	f94017b6 	ldr	x22, [x29, #40]
  4029a0:	f9401fb8 	ldr	x24, [x29, #56]
  4029a4:	f94027ba 	ldr	x26, [x29, #72]
  4029a8:	f9402fbc 	ldr	x28, [x29, #88]
  4029ac:	17fffeee 	b	402564 <_nl_load_domain+0xc4>
  4029b0:	b100041f 	cmn	x0, #0x1
  4029b4:	540000a1 	b.ne	4029c8 <_nl_load_domain+0x528>  // b.any
  4029b8:	f94073a0 	ldr	x0, [x29, #224]
  4029bc:	b8606aa0 	ldr	w0, [x21, x0]
  4029c0:	7100101f 	cmp	w0, #0x4
  4029c4:	54000880 	b.eq	402ad4 <_nl_load_domain+0x634>  // b.none
  4029c8:	f9401fb8 	ldr	x24, [x29, #56]
  4029cc:	f94027ba 	ldr	x26, [x29, #72]
  4029d0:	f9402fbc 	ldr	x28, [x29, #88]
  4029d4:	2a1603e0 	mov	w0, w22
  4029d8:	940056ce 	bl	418510 <__close_nocancel>
  4029dc:	913d2360 	add	x0, x27, #0xf48
  4029e0:	f94017b6 	ldr	x22, [x29, #40]
  4029e4:	b9400401 	ldr	w1, [x0, #4]
  4029e8:	17fffedf 	b	402564 <_nl_load_domain+0xc4>
  4029ec:	aa0203e0 	mov	x0, x2
  4029f0:	94005da6 	bl	41a088 <__lll_lock_wait_private>
  4029f4:	17fffec7 	b	402510 <_nl_load_domain+0x70>
  4029f8:	5ac00800 	rev	w0, w0
  4029fc:	13107c01 	asr	w1, w0, #16
  402a00:	7100043f 	cmp	w1, #0x1
  402a04:	54000528 	b.hi	402aa8 <_nl_load_domain+0x608>  // b.pmore
  402a08:	29410f84 	ldp	w4, w3, [x28, #8]
  402a0c:	29425381 	ldp	w1, w20, [x28, #16]
  402a10:	5ac00863 	rev	w3, w3
  402a14:	5ac00884 	rev	w4, w4
  402a18:	8b030383 	add	x3, x28, x3
  402a1c:	5ac00821 	rev	w1, w1
  402a20:	5ac00a94 	rev	w20, w20
  402a24:	8b010381 	add	x1, x28, x1
  402a28:	b9002ac4 	str	w4, [x22, #40]
  402a2c:	a90306c3 	stp	x3, x1, [x22, #48]
  402a30:	71000a9f 	cmp	w20, #0x2
  402a34:	b9005ad4 	str	w20, [x22, #88]
  402a38:	54000089 	b.ls	402a48 <_nl_load_domain+0x5a8>  // b.plast
  402a3c:	b9401b81 	ldr	w1, [x28, #24]
  402a40:	5ac00821 	rev	w1, w1
  402a44:	17ffff28 	b	4026e4 <_nl_load_domain+0x244>
  402a48:	f90032df 	str	xzr, [x22, #96]
  402a4c:	12003c00 	and	w0, w0, #0xffff
  402a50:	b9006ad5 	str	w21, [x22, #104]
  402a54:	35000120 	cbnz	w0, 402a78 <_nl_load_domain+0x5d8>
  402a58:	b90042df 	str	wzr, [x22, #64]
  402a5c:	a904fedf 	stp	xzr, xzr, [x22, #72]
  402a60:	17ffffba 	b	402948 <_nl_load_domain+0x4a8>
  402a64:	b0000260 	adrp	x0, 44f000 <_nl_locale_subfreeres+0x1b8>
  402a68:	f9444c00 	ldr	x0, [x0, #2200]
  402a6c:	b4000060 	cbz	x0, 402a78 <_nl_load_domain+0x5d8>
  402a70:	910202c0 	add	x0, x22, #0x80
  402a74:	d503201f 	nop
  402a78:	f94012c0 	ldr	x0, [x22, #32]
  402a7c:	940043bd 	bl	413970 <__free>
  402a80:	b940efa0 	ldr	w0, [x29, #236]
  402a84:	34000580 	cbz	w0, 402b34 <_nl_load_domain+0x694>
  402a88:	aa1a03e1 	mov	x1, x26
  402a8c:	aa1c03e0 	mov	x0, x28
  402a90:	940058dc 	bl	418e00 <__munmap>
  402a94:	aa1603e0 	mov	x0, x22
  402a98:	940043b6 	bl	413970 <__free>
  402a9c:	913d2360 	add	x0, x27, #0xf48
  402aa0:	f9000aff 	str	xzr, [x23, #16]
  402aa4:	17ffffbd 	b	402998 <_nl_load_domain+0x4f8>
  402aa8:	d2800000 	mov	x0, #0x0                   	// #0
  402aac:	17fffff4 	b	402a7c <_nl_load_domain+0x5dc>
  402ab0:	aa1a03e0 	mov	x0, x26
  402ab4:	94004217 	bl	413310 <__libc_malloc>
  402ab8:	aa0003fc 	mov	x28, x0
  402abc:	b4fff860 	cbz	x0, 4029c8 <_nl_load_domain+0x528>
  402ac0:	aa0003f8 	mov	x24, x0
  402ac4:	aa1a03f4 	mov	x20, x26
  402ac8:	900003e0 	adrp	x0, 47e000 <__FRAME_END__+0x105ac>
  402acc:	f947c800 	ldr	x0, [x0, #3984]
  402ad0:	f90073a0 	str	x0, [x29, #224]
  402ad4:	aa1403e2 	mov	x2, x20
  402ad8:	aa1803e1 	mov	x1, x24
  402adc:	2a1603e0 	mov	w0, w22
  402ae0:	94005572 	bl	4180a8 <__read_nocancel>
  402ae4:	f100001f 	cmp	x0, #0x0
  402ae8:	54fff64d 	b.le	4029b0 <_nl_load_domain+0x510>
  402aec:	8b000318 	add	x24, x24, x0
  402af0:	eb000294 	subs	x20, x20, x0
  402af4:	54ffff01 	b.ne	402ad4 <_nl_load_domain+0x634>  // b.any
  402af8:	2a1603e0 	mov	w0, w22
  402afc:	94005685 	bl	418510 <__close_nocancel>
  402b00:	b9400398 	ldr	w24, [x28]
  402b04:	52825bc1 	mov	w1, #0x12de                	// #4830
  402b08:	72b2a081 	movk	w1, #0x9504, lsl #16
  402b0c:	528092a0 	mov	w0, #0x495                 	// #1173
  402b10:	6b01031f 	cmp	w24, w1
  402b14:	72bbc240 	movk	w0, #0xde12, lsl #16
  402b18:	1a9f07f5 	cset	w21, ne  // ne = any
  402b1c:	710002bf 	cmp	w21, #0x0
  402b20:	7a401304 	ccmp	w24, w0, #0x4, ne  // ne = any
  402b24:	54ffda60 	b.eq	402670 <_nl_load_domain+0x1d0>  // b.none
  402b28:	aa1c03e0 	mov	x0, x28
  402b2c:	94004391 	bl	413970 <__free>
  402b30:	17ffff99 	b	402994 <_nl_load_domain+0x4f4>
  402b34:	aa1c03e0 	mov	x0, x28
  402b38:	9400438e 	bl	413970 <__free>
  402b3c:	17ffffd6 	b	402a94 <_nl_load_domain+0x5f4>
  402b40:	8b000380 	add	x0, x28, x0
  402b44:	b94002a1 	ldr	w1, [x21]
  402b48:	17ffff29 	b	4027ec <_nl_load_domain+0x34c>
  402b4c:	f94027ba 	ldr	x26, [x29, #72]
  402b50:	17ffffa1 	b	4029d4 <_nl_load_domain+0x534>
  402b54:	39400401 	ldrb	w1, [x0, #1]
  402b58:	7101483f 	cmp	w1, #0x52
  402b5c:	d2800001 	mov	x1, #0x0                   	// #0
  402b60:	54ffe5e1 	b.ne	40281c <_nl_load_domain+0x37c>  // b.any
  402b64:	39400802 	ldrb	w2, [x0, #2]
  402b68:	7101245f 	cmp	w2, #0x49
  402b6c:	54ffe581 	b.ne	40281c <_nl_load_domain+0x37c>  // b.any
  402b70:	39400c02 	ldrb	w2, [x0, #3]
  402b74:	7101905f 	cmp	w2, #0x64
  402b78:	1a9f17e5 	cset	w5, eq  // eq = none
  402b7c:	7101a45f 	cmp	w2, #0x69
  402b80:	1a9f14a5 	csinc	w5, w5, wzr, ne  // ne = any
  402b84:	7101bc5f 	cmp	w2, #0x6f
  402b88:	1a9f14b2 	csinc	w18, w5, wzr, ne  // ne = any
  402b8c:	7101d45f 	cmp	w2, #0x75
  402b90:	1a9f1651 	csinc	w17, w18, wzr, ne  // ne = any
  402b94:	7101e05f 	cmp	w2, #0x78
  402b98:	1a9f162c 	csinc	w12, w17, wzr, ne  // ne = any
  402b9c:	7101605f 	cmp	w2, #0x58
  402ba0:	7a401980 	ccmp	w12, #0x0, #0x0, ne  // ne = any
  402ba4:	54ffe3c0 	b.eq	40281c <_nl_load_domain+0x37c>  // b.none
  402ba8:	39401014 	ldrb	w20, [x0, #4]
  402bac:	7100e29f 	cmp	w20, #0x38
  402bb0:	54000a40 	b.eq	402cf8 <_nl_load_domain+0x858>  // b.none
  402bb4:	7100c69f 	cmp	w20, #0x31
  402bb8:	54000800 	b.eq	402cb8 <_nl_load_domain+0x818>  // b.none
  402bbc:	7100ce9f 	cmp	w20, #0x33
  402bc0:	54002a81 	b.ne	403110 <_nl_load_domain+0xc70>  // b.any
  402bc4:	39401401 	ldrb	w1, [x0, #5]
  402bc8:	7100c83f 	cmp	w1, #0x32
  402bcc:	54002780 	b.eq	4030bc <_nl_load_domain+0xc1c>  // b.none
  402bd0:	d2800001 	mov	x1, #0x0                   	// #0
  402bd4:	17ffff12 	b	40281c <_nl_load_domain+0x37c>
  402bd8:	b900eba0 	str	w0, [x29, #232]
  402bdc:	34fff3e0 	cbz	w0, 402a58 <_nl_load_domain+0x5b8>
  402be0:	2943d780 	ldp	w0, w21, [x28, #28]
  402be4:	b900dba0 	str	w0, [x29, #216]
  402be8:	17fffed1 	b	40272c <_nl_load_domain+0x28c>
  402bec:	b4002614 	cbz	x20, 4030ac <_nl_load_domain+0xc0c>
  402bf0:	b94002e1 	ldr	w1, [x23]
  402bf4:	17ffff33 	b	4028c0 <_nl_load_domain+0x420>
  402bf8:	aa1a03e1 	mov	x1, x26
  402bfc:	aa1c03e0 	mov	x0, x28
  402c00:	94005880 	bl	418e00 <__munmap>
  402c04:	f94017b6 	ldr	x22, [x29, #40]
  402c08:	b9400681 	ldr	w1, [x20, #4]
  402c0c:	f9401fb8 	ldr	x24, [x29, #56]
  402c10:	f94027ba 	ldr	x26, [x29, #72]
  402c14:	f9402fbc 	ldr	x28, [x29, #88]
  402c18:	17fffe53 	b	402564 <_nl_load_domain+0xc4>
  402c1c:	a949ebb6 	ldp	x22, x26, [x29, #152]
  402c20:	f94067bc 	ldr	x28, [x29, #200]
  402c24:	f9406fb7 	ldr	x23, [x29, #216]
  402c28:	f94073a0 	ldr	x0, [x29, #224]
  402c2c:	94004351 	bl	413970 <__free>
  402c30:	17ffff92 	b	402a78 <_nl_load_domain+0x5d8>
  402c34:	d2800034 	mov	x20, #0x1                   	// #1
  402c38:	17ffff1b 	b	4028a4 <_nl_load_domain+0x404>
  402c3c:	9100103c 	add	x28, x1, #0x4
  402c40:	1400000e 	b	402c78 <_nl_load_domain+0x7d8>
  402c44:	5ac00800 	rev	w0, w0
  402c48:	8b130013 	add	x19, x0, x19
  402c4c:	b9400780 	ldr	w0, [x28, #4]
  402c50:	5ac00800 	rev	w0, w0
  402c54:	3100041f 	cmn	w0, #0x1
  402c58:	54ffe420 	b.eq	4028dc <_nl_load_domain+0x43c>  // b.none
  402c5c:	6b15001f 	cmp	w0, w21
  402c60:	54fffde2 	b.cs	402c1c <_nl_load_domain+0x77c>  // b.hs, b.nlast
  402c64:	f8605ac0 	ldr	x0, [x22, w0, uxtw #3]
  402c68:	b4ffe520 	cbz	x0, 40290c <_nl_load_domain+0x46c>
  402c6c:	94004935 	bl	415140 <__strlen>
  402c70:	9100239c 	add	x28, x28, #0x8
  402c74:	8b130013 	add	x19, x0, x19
  402c78:	52825bc0 	mov	w0, #0x12de                	// #4830
  402c7c:	72b2a080 	movk	w0, #0x9504, lsl #16
  402c80:	6b00031f 	cmp	w24, w0
  402c84:	b9400380 	ldr	w0, [x28]
  402c88:	54fffde1 	b.ne	402c44 <_nl_load_domain+0x7a4>  // b.any
  402c8c:	8b130013 	add	x19, x0, x19
  402c90:	b9400780 	ldr	w0, [x28, #4]
  402c94:	17fffff0 	b	402c54 <_nl_load_domain+0x7b4>
  402c98:	8b010381 	add	x1, x28, x1
  402c9c:	f9005ba1 	str	x1, [x29, #176]
  402ca0:	17fffeed 	b	402854 <_nl_load_domain+0x3b4>
  402ca4:	f90017b6 	str	x22, [x29, #40]
  402ca8:	f9001fb8 	str	x24, [x29, #56]
  402cac:	f90027ba 	str	x26, [x29, #72]
  402cb0:	f9002fbc 	str	x28, [x29, #88]
  402cb4:	94005d5b 	bl	41a220 <__stack_chk_fail>
  402cb8:	39401414 	ldrb	w20, [x0, #5]
  402cbc:	7100da9f 	cmp	w20, #0x36
  402cc0:	54ffdae1 	b.ne	40281c <_nl_load_domain+0x37c>  // b.any
  402cc4:	39401800 	ldrb	w0, [x0, #6]
  402cc8:	35001f60 	cbnz	w0, 4030b4 <_nl_load_domain+0xc14>
  402ccc:	7101905f 	cmp	w2, #0x64
  402cd0:	540021c0 	b.eq	403108 <_nl_load_domain+0xc68>  // b.none
  402cd4:	35003f05 	cbnz	w5, 4034b4 <_nl_load_domain+0x1014>
  402cd8:	35003eb2 	cbnz	w18, 4034ac <_nl_load_domain+0x100c>
  402cdc:	35003f51 	cbnz	w17, 4034c4 <_nl_load_domain+0x1024>
  402ce0:	f94067a0 	ldr	x0, [x29, #200]
  402ce4:	7100019f 	cmp	w12, #0x0
  402ce8:	b00002e1 	adrp	x1, 45f000 <translit_from_idx+0x1228>
  402cec:	91378021 	add	x1, x1, #0xde0
  402cf0:	9a800021 	csel	x1, x1, x0, eq  // eq = none
  402cf4:	17fffeca 	b	40281c <_nl_load_domain+0x37c>
  402cf8:	39401400 	ldrb	w0, [x0, #5]
  402cfc:	35ffd900 	cbnz	w0, 40281c <_nl_load_domain+0x37c>
  402d00:	7101905f 	cmp	w2, #0x64
  402d04:	54001f60 	b.eq	4030f0 <_nl_load_domain+0xc50>  // b.none
  402d08:	35004065 	cbnz	w5, 403514 <_nl_load_domain+0x1074>
  402d0c:	35004012 	cbnz	w18, 40350c <_nl_load_domain+0x106c>
  402d10:	35003fb1 	cbnz	w17, 403504 <_nl_load_domain+0x1064>
  402d14:	f94067a0 	ldr	x0, [x29, #200]
  402d18:	7100019f 	cmp	w12, #0x0
  402d1c:	b00002e1 	adrp	x1, 45f000 <translit_from_idx+0x1228>
  402d20:	91378021 	add	x1, x1, #0xde0
  402d24:	9a800021 	csel	x1, x1, x0, eq  // eq = none
  402d28:	17fffebd 	b	40281c <_nl_load_domain+0x37c>
  402d2c:	f94063a1 	ldr	x1, [x29, #192]
  402d30:	531f7800 	lsl	w0, w0, #1
  402d34:	8b205020 	add	x0, x1, w0, uxtw #4
  402d38:	94004176 	bl	413310 <__libc_malloc>
  402d3c:	aa0003e3 	mov	x3, x0
  402d40:	b4ffe9c0 	cbz	x0, 402a78 <_nl_load_domain+0x5d8>
  402d44:	f9406ba0 	ldr	x0, [x29, #208]
  402d48:	d2800005 	mov	x5, #0x0                   	// #0
  402d4c:	a9085fb3 	stp	x19, x23, [x29, #128]
  402d50:	5280000a 	mov	w10, #0x0                   	// #0
  402d54:	f9004fba 	str	x26, [x29, #152]
  402d58:	aa0503f3 	mov	x19, x5
  402d5c:	d37c7c18 	ubfiz	x24, x0, #4, #32
  402d60:	aa1c03fa 	mov	x26, x28
  402d64:	8b180060 	add	x0, x3, x24
  402d68:	f9006fa0 	str	x0, [x29, #216]
  402d6c:	8b180018 	add	x24, x0, x24
  402d70:	f9404ba0 	ldr	x0, [x29, #144]
  402d74:	aa1603fc 	mov	x28, x22
  402d78:	f9004bb8 	str	x24, [x29, #144]
  402d7c:	8b000314 	add	x20, x24, x0
  402d80:	2a0a03f8 	mov	w24, w10
  402d84:	aa1403f7 	mov	x23, x20
  402d88:	f90012c3 	str	x3, [x22, #32]
  402d8c:	f9005fa3 	str	x3, [x29, #184]
  402d90:	b9401b94 	ldr	w20, [x28, #24]
  402d94:	52800002 	mov	w2, #0x0                   	// #0
  402d98:	a94a97a6 	ldp	x6, x5, [x29, #168]
  402d9c:	f94073a4 	ldr	x4, [x29, #224]
  402da0:	34000eb4 	cbz	w20, 402f74 <_nl_load_domain+0xad4>
  402da4:	340038c2 	cbz	w2, 4034bc <_nl_load_domain+0x101c>
  402da8:	b87378c0 	ldr	w0, [x6, x19, lsl #2]
  402dac:	5ac00800 	rev	w0, w0
  402db0:	8b000340 	add	x0, x26, x0
  402db4:	b9400801 	ldr	w1, [x0, #8]
  402db8:	3100043f 	cmn	w1, #0x1
  402dbc:	1a9f07e1 	cset	w1, ne  // ne = any
  402dc0:	35000c21 	cbnz	w1, 402f44 <_nl_load_domain+0xaa4>
  402dc4:	34000e82 	cbz	w2, 402f94 <_nl_load_domain+0xaf4>
  402dc8:	f9405fa0 	ldr	x0, [x29, #184]
  402dcc:	d37c7f15 	ubfiz	x21, x24, #4, #32
  402dd0:	52800016 	mov	w22, #0x0                   	// #0
  402dd4:	b9007fb8 	str	w24, [x29, #124]
  402dd8:	8b150000 	add	x0, x0, x21
  402ddc:	f90067a0 	str	x0, [x29, #200]
  402de0:	f9406fa0 	ldr	x0, [x29, #216]
  402de4:	2a1603f8 	mov	w24, w22
  402de8:	f90053bc 	str	x28, [x29, #160]
  402dec:	2a1403fc 	mov	w28, w20
  402df0:	aa1303f4 	mov	x20, x19
  402df4:	aa1703f3 	mov	x19, x23
  402df8:	8b150000 	add	x0, x0, x21
  402dfc:	f90063a0 	str	x0, [x29, #192]
  402e00:	34000cfc 	cbz	w28, 402f9c <_nl_load_domain+0xafc>
  402e04:	34001318 	cbz	w24, 403064 <_nl_load_domain+0xbc4>
  402e08:	f94057a0 	ldr	x0, [x29, #168]
  402e0c:	f94063b7 	ldr	x23, [x29, #192]
  402e10:	b8747801 	ldr	w1, [x0, x20, lsl #2]
  402e14:	5ac00821 	rev	w1, w1
  402e18:	8b010340 	add	x0, x26, x1
  402e1c:	b8616b55 	ldr	w21, [x26, x1]
  402e20:	5ac00ab5 	rev	w21, w21
  402e24:	8b150355 	add	x21, x26, x21
  402e28:	b9400801 	ldr	w1, [x0, #8]
  402e2c:	3100043f 	cmn	w1, #0x1
  402e30:	b9400401 	ldr	w1, [x0, #4]
  402e34:	54000d01 	b.ne	402fd4 <_nl_load_domain+0xb34>  // b.any
  402e38:	5ac00820 	rev	w0, w1
  402e3c:	a90056e0 	stp	x0, x21, [x23]
  402e40:	340034d8 	cbz	w24, 4034d8 <_nl_load_domain+0x1038>
  402e44:	b9407fb8 	ldr	w24, [x29, #124]
  402e48:	aa1303f7 	mov	x23, x19
  402e4c:	f94053bc 	ldr	x28, [x29, #160]
  402e50:	aa1403f3 	mov	x19, x20
  402e54:	11000718 	add	w24, w24, #0x1
  402e58:	b940eba0 	ldr	w0, [x29, #232]
  402e5c:	91000673 	add	x19, x19, #0x1
  402e60:	6b13001f 	cmp	w0, w19
  402e64:	54fff968 	b.hi	402d90 <_nl_load_domain+0x8f0>  // b.pmore
  402e68:	b940d3a0 	ldr	w0, [x29, #208]
  402e6c:	aa1c03f6 	mov	x22, x28
  402e70:	a9485fb3 	ldp	x19, x23, [x29, #128]
  402e74:	aa1a03fc 	mov	x28, x26
  402e78:	6b18001f 	cmp	w0, w24
  402e7c:	f9405fa3 	ldr	x3, [x29, #184]
  402e80:	a9496bb8 	ldp	x24, x26, [x29, #144]
  402e84:	54003241 	b.ne	4034cc <_nl_load_domain+0x102c>  // b.any
  402e88:	d2800000 	mov	x0, #0x0                   	// #0
  402e8c:	b9405ac2 	ldr	w2, [x22, #88]
  402e90:	14000008 	b	402eb0 <_nl_load_domain+0xa10>
  402e94:	b9406ac4 	ldr	w4, [x22, #104]
  402e98:	f94032c1 	ldr	x1, [x22, #96]
  402e9c:	b8607821 	ldr	w1, [x1, x0, lsl #2]
  402ea0:	34000044 	cbz	w4, 402ea8 <_nl_load_domain+0xa08>
  402ea4:	5ac00821 	rev	w1, w1
  402ea8:	b8207b01 	str	w1, [x24, x0, lsl #2]
  402eac:	91000400 	add	x0, x0, #0x1
  402eb0:	6b00005f 	cmp	w2, w0
  402eb4:	54ffff08 	b.hi	402e94 <_nl_load_domain+0x9f4>  // b.pmore
  402eb8:	aa0303f4 	mov	x20, x3
  402ebc:	d2800015 	mov	x21, #0x0                   	// #0
  402ec0:	b940d3a0 	ldr	w0, [x29, #208]
  402ec4:	2a1503e3 	mov	w3, w21
  402ec8:	6b15001f 	cmp	w0, w21
  402ecc:	54000de9 	b.ls	403088 <_nl_load_domain+0xbe8>  // b.plast
  402ed0:	8b151280 	add	x0, x20, x21, lsl #4
  402ed4:	b900eba3 	str	w3, [x29, #232]
  402ed8:	f9400400 	ldr	x0, [x0, #8]
  402edc:	94000857 	bl	405038 <__hash_string>
  402ee0:	b9405ac2 	ldr	w2, [x22, #88]
  402ee4:	b940eba3 	ldr	w3, [x29, #232]
  402ee8:	51000845 	sub	w5, w2, #0x2
  402eec:	1ac20801 	udiv	w1, w0, w2
  402ef0:	1ac50804 	udiv	w4, w0, w5
  402ef4:	1b028021 	msub	w1, w1, w2, w0
  402ef8:	1b058084 	msub	w4, w4, w5, w0
  402efc:	11000484 	add	w4, w4, #0x1
  402f00:	4b040046 	sub	w6, w2, w4
  402f04:	4b020082 	sub	w2, w4, w2
  402f08:	14000005 	b	402f1c <_nl_load_domain+0xa7c>
  402f0c:	0b020020 	add	w0, w1, w2
  402f10:	6b0100df 	cmp	w6, w1
  402f14:	0b040021 	add	w1, w1, w4
  402f18:	1a808021 	csel	w1, w1, w0, hi  // hi = pmore
  402f1c:	2a0103e0 	mov	w0, w1
  402f20:	8b000b05 	add	x5, x24, x0, lsl #2
  402f24:	b8607b00 	ldr	w0, [x24, x0, lsl #2]
  402f28:	35ffff20 	cbnz	w0, 402f0c <_nl_load_domain+0xa6c>
  402f2c:	b9402ac0 	ldr	w0, [x22, #40]
  402f30:	910006b5 	add	x21, x21, #0x1
  402f34:	11000400 	add	w0, w0, #0x1
  402f38:	0b030000 	add	w0, w0, w3
  402f3c:	b90000a0 	str	w0, [x5]
  402f40:	17ffffe0 	b	402ec0 <_nl_load_domain+0xa20>
  402f44:	91001000 	add	x0, x0, #0x4
  402f48:	14000004 	b	402f58 <_nl_load_domain+0xab8>
  402f4c:	f8615881 	ldr	x1, [x4, w1, uxtw #3]
  402f50:	b4fff841 	cbz	x1, 402e58 <_nl_load_domain+0x9b8>
  402f54:	91002000 	add	x0, x0, #0x8
  402f58:	b9400401 	ldr	w1, [x0, #4]
  402f5c:	7100029f 	cmp	w20, #0x0
  402f60:	5ac00823 	rev	w3, w1
  402f64:	1a811061 	csel	w1, w3, w1, ne  // ne = any
  402f68:	3100043f 	cmn	w1, #0x1
  402f6c:	54ffff01 	b.ne	402f4c <_nl_load_domain+0xaac>  // b.any
  402f70:	17ffff95 	b	402dc4 <_nl_load_domain+0x924>
  402f74:	34002ae2 	cbz	w2, 4034d0 <_nl_load_domain+0x1030>
  402f78:	b87378c0 	ldr	w0, [x6, x19, lsl #2]
  402f7c:	8b000340 	add	x0, x26, x0
  402f80:	b9400801 	ldr	w1, [x0, #8]
  402f84:	3100043f 	cmn	w1, #0x1
  402f88:	1a9f07e1 	cset	w1, ne  // ne = any
  402f8c:	34fff1c1 	cbz	w1, 402dc4 <_nl_load_domain+0x924>
  402f90:	17ffffed 	b	402f44 <_nl_load_domain+0xaa4>
  402f94:	52800022 	mov	w2, #0x1                   	// #1
  402f98:	17ffff82 	b	402da0 <_nl_load_domain+0x900>
  402f9c:	34002a78 	cbz	w24, 4034e8 <_nl_load_domain+0x1048>
  402fa0:	f94057a0 	ldr	x0, [x29, #168]
  402fa4:	f94063b7 	ldr	x23, [x29, #192]
  402fa8:	b8747801 	ldr	w1, [x0, x20, lsl #2]
  402fac:	8b010340 	add	x0, x26, x1
  402fb0:	b8616b55 	ldr	w21, [x26, x1]
  402fb4:	8b150355 	add	x21, x26, x21
  402fb8:	b9400801 	ldr	w1, [x0, #8]
  402fbc:	3100043f 	cmn	w1, #0x1
  402fc0:	b9400401 	ldr	w1, [x0, #4]
  402fc4:	54000081 	b.ne	402fd4 <_nl_load_domain+0xb34>  // b.any
  402fc8:	2a0103e0 	mov	w0, w1
  402fcc:	a90056e0 	stp	x0, x21, [x23]
  402fd0:	17ffff9c 	b	402e40 <_nl_load_domain+0x9a0>
  402fd4:	f9003bb4 	str	x20, [x29, #112]
  402fd8:	91001016 	add	x22, x0, #0x4
  402fdc:	aa1503f4 	mov	x20, x21
  402fe0:	f90006f3 	str	x19, [x23, #8]
  402fe4:	294056c0 	ldp	w0, w21, [x22]
  402fe8:	3400007c 	cbz	w28, 402ff4 <_nl_load_domain+0xb54>
  402fec:	5ac00800 	rev	w0, w0
  402ff0:	5ac00ab5 	rev	w21, w21
  402ff4:	35000200 	cbnz	w0, 403034 <_nl_load_domain+0xb94>
  402ff8:	310006bf 	cmn	w21, #0x1
  402ffc:	540002a0 	b.eq	403050 <_nl_load_domain+0xbb0>  // b.none
  403000:	f94073a0 	ldr	x0, [x29, #224]
  403004:	910022d6 	add	x22, x22, #0x8
  403008:	f8755801 	ldr	x1, [x0, w21, uxtw #3]
  40300c:	f90037a1 	str	x1, [x29, #104]
  403010:	aa0103e0 	mov	x0, x1
  403014:	9400484b 	bl	415140 <__strlen>
  403018:	aa0003f5 	mov	x21, x0
  40301c:	f94037a1 	ldr	x1, [x29, #104]
  403020:	aa0003e2 	mov	x2, x0
  403024:	aa1303e0 	mov	x0, x19
  403028:	8b150273 	add	x19, x19, x21
  40302c:	97fff489 	bl	400250 <.plt+0x10>
  403030:	17ffffed 	b	402fe4 <_nl_load_domain+0xb44>
  403034:	2a0003e2 	mov	w2, w0
  403038:	aa1403e1 	mov	x1, x20
  40303c:	aa1303e0 	mov	x0, x19
  403040:	8b020294 	add	x20, x20, x2
  403044:	8b020273 	add	x19, x19, x2
  403048:	97fff482 	bl	400250 <.plt+0x10>
  40304c:	17ffffeb 	b	402ff8 <_nl_load_domain+0xb58>
  403050:	f94006e0 	ldr	x0, [x23, #8]
  403054:	f9403bb4 	ldr	x20, [x29, #112]
  403058:	cb000260 	sub	x0, x19, x0
  40305c:	f90002e0 	str	x0, [x23]
  403060:	17ffff78 	b	402e40 <_nl_load_domain+0x9a0>
  403064:	f9405ba0 	ldr	x0, [x29, #176]
  403068:	f94067b7 	ldr	x23, [x29, #200]
  40306c:	b8747801 	ldr	w1, [x0, x20, lsl #2]
  403070:	5ac00821 	rev	w1, w1
  403074:	8b010340 	add	x0, x26, x1
  403078:	b8616b55 	ldr	w21, [x26, x1]
  40307c:	5ac00ab5 	rev	w21, w21
  403080:	8b150355 	add	x21, x26, x21
  403084:	17ffff69 	b	402e28 <_nl_load_domain+0x988>
  403088:	b90042c0 	str	w0, [x22, #64]
  40308c:	f9406fa0 	ldr	x0, [x29, #216]
  403090:	f90026d4 	str	x20, [x22, #72]
  403094:	f9002ac0 	str	x0, [x22, #80]
  403098:	f90032d8 	str	x24, [x22, #96]
  40309c:	b9006adf 	str	wzr, [x22, #104]
  4030a0:	17fffe28 	b	402940 <_nl_load_domain+0x4a0>
  4030a4:	b9400340 	ldr	w0, [x26]
  4030a8:	17fffe05 	b	4028bc <_nl_load_domain+0x41c>
  4030ac:	b9400341 	ldr	w1, [x26]
  4030b0:	17fffe04 	b	4028c0 <_nl_load_domain+0x420>
  4030b4:	d2800001 	mov	x1, #0x0                   	// #0
  4030b8:	17fffdd9 	b	40281c <_nl_load_domain+0x37c>
  4030bc:	39401800 	ldrb	w0, [x0, #6]
  4030c0:	350001c0 	cbnz	w0, 4030f8 <_nl_load_domain+0xc58>
  4030c4:	7101905f 	cmp	w2, #0x64
  4030c8:	54002360 	b.eq	403534 <_nl_load_domain+0x1094>  // b.none
  4030cc:	35002305 	cbnz	w5, 40352c <_nl_load_domain+0x108c>
  4030d0:	350022b2 	cbnz	w18, 403524 <_nl_load_domain+0x1084>
  4030d4:	35002251 	cbnz	w17, 40351c <_nl_load_domain+0x107c>
  4030d8:	f94067a0 	ldr	x0, [x29, #200]
  4030dc:	7100019f 	cmp	w12, #0x0
  4030e0:	900002e1 	adrp	x1, 45f000 <translit_from_idx+0x1228>
  4030e4:	91378021 	add	x1, x1, #0xde0
  4030e8:	9a800021 	csel	x1, x1, x0, eq  // eq = none
  4030ec:	17fffdcc 	b	40281c <_nl_load_domain+0x37c>
  4030f0:	aa0703e1 	mov	x1, x7
  4030f4:	17fffdca 	b	40281c <_nl_load_domain+0x37c>
  4030f8:	d2800001 	mov	x1, #0x0                   	// #0
  4030fc:	17fffdc8 	b	40281c <_nl_load_domain+0x37c>
  403100:	d2800001 	mov	x1, #0x0                   	// #0
  403104:	17fffdc6 	b	40281c <_nl_load_domain+0x37c>
  403108:	aa0703e1 	mov	x1, x7
  40310c:	17fffdc4 	b	40281c <_nl_load_domain+0x37c>
  403110:	7100da9f 	cmp	w20, #0x36
  403114:	54000341 	b.ne	40317c <_nl_load_domain+0xcdc>  // b.any
  403118:	39401401 	ldrb	w1, [x0, #5]
  40311c:	7100d03f 	cmp	w1, #0x34
  403120:	54000060 	b.eq	40312c <_nl_load_domain+0xc8c>  // b.none
  403124:	d2800001 	mov	x1, #0x0                   	// #0
  403128:	17fffdbd 	b	40281c <_nl_load_domain+0x37c>
  40312c:	39401800 	ldrb	w0, [x0, #6]
  403130:	35000120 	cbnz	w0, 403154 <_nl_load_domain+0xcb4>
  403134:	7101905f 	cmp	w2, #0x64
  403138:	540001e0 	b.eq	403174 <_nl_load_domain+0xcd4>  // b.none
  40313c:	35000185 	cbnz	w5, 40316c <_nl_load_domain+0xccc>
  403140:	35000132 	cbnz	w18, 403164 <_nl_load_domain+0xcc4>
  403144:	350000d1 	cbnz	w17, 40315c <_nl_load_domain+0xcbc>
  403148:	7100019f 	cmp	w12, #0x0
  40314c:	9a890101 	csel	x1, x8, x9, eq  // eq = none
  403150:	17fffdb3 	b	40281c <_nl_load_domain+0x37c>
  403154:	d2800001 	mov	x1, #0x0                   	// #0
  403158:	17fffdb1 	b	40281c <_nl_load_domain+0x37c>
  40315c:	aa0d03e1 	mov	x1, x13
  403160:	17fffdaf 	b	40281c <_nl_load_domain+0x37c>
  403164:	aa0e03e1 	mov	x1, x14
  403168:	17fffdad 	b	40281c <_nl_load_domain+0x37c>
  40316c:	aa0f03e1 	mov	x1, x15
  403170:	17fffdab 	b	40281c <_nl_load_domain+0x37c>
  403174:	aa1003e1 	mov	x1, x16
  403178:	17fffda9 	b	40281c <_nl_load_domain+0x37c>
  40317c:	7101329f 	cmp	w20, #0x4c
  403180:	54000161 	b.ne	4031ac <_nl_load_domain+0xd0c>  // b.any
  403184:	39401401 	ldrb	w1, [x0, #5]
  403188:	7101143f 	cmp	w1, #0x45
  40318c:	54000060 	b.eq	403198 <_nl_load_domain+0xcf8>  // b.none
  403190:	d2800001 	mov	x1, #0x0                   	// #0
  403194:	17fffda2 	b	40281c <_nl_load_domain+0x37c>
  403198:	39401801 	ldrb	w1, [x0, #6]
  40319c:	7101043f 	cmp	w1, #0x41
  4031a0:	54001ce0 	b.eq	40353c <_nl_load_domain+0x109c>  // b.none
  4031a4:	d2800001 	mov	x1, #0x0                   	// #0
  4031a8:	17fffd9d 	b	40281c <_nl_load_domain+0x37c>
  4031ac:	71011a9f 	cmp	w20, #0x46
  4031b0:	54000161 	b.ne	4031dc <_nl_load_domain+0xd3c>  // b.any
  4031b4:	39401401 	ldrb	w1, [x0, #5]
  4031b8:	7101043f 	cmp	w1, #0x41
  4031bc:	54000060 	b.eq	4031c8 <_nl_load_domain+0xd28>  // b.none
  4031c0:	d2800001 	mov	x1, #0x0                   	// #0
  4031c4:	17fffd96 	b	40281c <_nl_load_domain+0x37c>
  4031c8:	39401801 	ldrb	w1, [x0, #6]
  4031cc:	71014c3f 	cmp	w1, #0x53
  4031d0:	540004e0 	b.eq	40326c <_nl_load_domain+0xdcc>  // b.none
  4031d4:	d2800001 	mov	x1, #0x0                   	// #0
  4031d8:	17fffd91 	b	40281c <_nl_load_domain+0x37c>
  4031dc:	7101369f 	cmp	w20, #0x4d
  4031e0:	54000161 	b.ne	40320c <_nl_load_domain+0xd6c>  // b.any
  4031e4:	39401401 	ldrb	w1, [x0, #5]
  4031e8:	7101043f 	cmp	w1, #0x41
  4031ec:	54000060 	b.eq	4031f8 <_nl_load_domain+0xd58>  // b.none
  4031f0:	d2800001 	mov	x1, #0x0                   	// #0
  4031f4:	17fffd8a 	b	40281c <_nl_load_domain+0x37c>
  4031f8:	39401801 	ldrb	w1, [x0, #6]
  4031fc:	7101603f 	cmp	w1, #0x58
  403200:	54000400 	b.eq	403280 <_nl_load_domain+0xde0>  // b.none
  403204:	d2800001 	mov	x1, #0x0                   	// #0
  403208:	17fffd85 	b	40281c <_nl_load_domain+0x37c>
  40320c:	7101429f 	cmp	w20, #0x50
  403210:	54000161 	b.ne	40323c <_nl_load_domain+0xd9c>  // b.any
  403214:	39401401 	ldrb	w1, [x0, #5]
  403218:	7101503f 	cmp	w1, #0x54
  40321c:	54000060 	b.eq	403228 <_nl_load_domain+0xd88>  // b.none
  403220:	d2800001 	mov	x1, #0x0                   	// #0
  403224:	17fffd7e 	b	40281c <_nl_load_domain+0x37c>
  403228:	39401801 	ldrb	w1, [x0, #6]
  40322c:	7101483f 	cmp	w1, #0x52
  403230:	540000a0 	b.eq	403244 <_nl_load_domain+0xda4>  // b.none
  403234:	d2800001 	mov	x1, #0x0                   	// #0
  403238:	17fffd79 	b	40281c <_nl_load_domain+0x37c>
  40323c:	d2800001 	mov	x1, #0x0                   	// #0
  403240:	17fffd77 	b	40281c <_nl_load_domain+0x37c>
  403244:	39401c00 	ldrb	w0, [x0, #7]
  403248:	350012e0 	cbnz	w0, 4034a4 <_nl_load_domain+0x1004>
  40324c:	7101905f 	cmp	w2, #0x64
  403250:	54001260 	b.eq	40349c <_nl_load_domain+0xffc>  // b.none
  403254:	35001205 	cbnz	w5, 403494 <_nl_load_domain+0xff4>
  403258:	350011b2 	cbnz	w18, 40348c <_nl_load_domain+0xfec>
  40325c:	35000271 	cbnz	w17, 4032a8 <_nl_load_domain+0xe08>
  403260:	7100019f 	cmp	w12, #0x0
  403264:	9a890101 	csel	x1, x8, x9, eq  // eq = none
  403268:	17fffd6d 	b	40281c <_nl_load_domain+0x37c>
  40326c:	39401c01 	ldrb	w1, [x0, #7]
  403270:	7101503f 	cmp	w1, #0x54
  403274:	540001e0 	b.eq	4032b0 <_nl_load_domain+0xe10>  // b.none
  403278:	d2800001 	mov	x1, #0x0                   	// #0
  40327c:	17fffd68 	b	40281c <_nl_load_domain+0x37c>
  403280:	39401c00 	ldrb	w0, [x0, #7]
  403284:	35001000 	cbnz	w0, 403484 <_nl_load_domain+0xfe4>
  403288:	7101905f 	cmp	w2, #0x64
  40328c:	54000f80 	b.eq	40347c <_nl_load_domain+0xfdc>  // b.none
  403290:	35000f25 	cbnz	w5, 403474 <_nl_load_domain+0xfd4>
  403294:	35000ed2 	cbnz	w18, 40346c <_nl_load_domain+0xfcc>
  403298:	35000231 	cbnz	w17, 4032dc <_nl_load_domain+0xe3c>
  40329c:	7100019f 	cmp	w12, #0x0
  4032a0:	9a890101 	csel	x1, x8, x9, eq  // eq = none
  4032a4:	17fffd5e 	b	40281c <_nl_load_domain+0x37c>
  4032a8:	aa0d03e1 	mov	x1, x13
  4032ac:	17fffd5c 	b	40281c <_nl_load_domain+0x37c>
  4032b0:	39402001 	ldrb	w1, [x0, #8]
  4032b4:	7100e03f 	cmp	w1, #0x38
  4032b8:	54000840 	b.eq	4033c0 <_nl_load_domain+0xf20>  // b.none
  4032bc:	7100c43f 	cmp	w1, #0x31
  4032c0:	54000760 	b.eq	4033ac <_nl_load_domain+0xf0c>  // b.none
  4032c4:	7100cc3f 	cmp	w1, #0x33
  4032c8:	54000180 	b.eq	4032f8 <_nl_load_domain+0xe58>  // b.none
  4032cc:	7100d83f 	cmp	w1, #0x36
  4032d0:	540000a0 	b.eq	4032e4 <_nl_load_domain+0xe44>  // b.none
  4032d4:	d2800001 	mov	x1, #0x0                   	// #0
  4032d8:	17fffd51 	b	40281c <_nl_load_domain+0x37c>
  4032dc:	aa0d03e1 	mov	x1, x13
  4032e0:	17fffd4f 	b	40281c <_nl_load_domain+0x37c>
  4032e4:	39402401 	ldrb	w1, [x0, #9]
  4032e8:	7100d03f 	cmp	w1, #0x34
  4032ec:	54000100 	b.eq	40330c <_nl_load_domain+0xe6c>  // b.none
  4032f0:	d2800001 	mov	x1, #0x0                   	// #0
  4032f4:	17fffd4a 	b	40281c <_nl_load_domain+0x37c>
  4032f8:	39402401 	ldrb	w1, [x0, #9]
  4032fc:	7100c83f 	cmp	w1, #0x32
  403300:	540001a0 	b.eq	403334 <_nl_load_domain+0xe94>  // b.none
  403304:	d2800001 	mov	x1, #0x0                   	// #0
  403308:	17fffd45 	b	40281c <_nl_load_domain+0x37c>
  40330c:	39402800 	ldrb	w0, [x0, #10]
  403310:	350004a0 	cbnz	w0, 4033a4 <_nl_load_domain+0xf04>
  403314:	7101905f 	cmp	w2, #0x64
  403318:	54000420 	b.eq	40339c <_nl_load_domain+0xefc>  // b.none
  40331c:	350003c5 	cbnz	w5, 403394 <_nl_load_domain+0xef4>
  403320:	35000372 	cbnz	w18, 40338c <_nl_load_domain+0xeec>
  403324:	350001d1 	cbnz	w17, 40335c <_nl_load_domain+0xebc>
  403328:	7100019f 	cmp	w12, #0x0
  40332c:	9a890101 	csel	x1, x8, x9, eq  // eq = none
  403330:	17fffd3b 	b	40281c <_nl_load_domain+0x37c>
  403334:	39402800 	ldrb	w0, [x0, #10]
  403338:	35000260 	cbnz	w0, 403384 <_nl_load_domain+0xee4>
  40333c:	7101905f 	cmp	w2, #0x64
  403340:	540001e0 	b.eq	40337c <_nl_load_domain+0xedc>  // b.none
  403344:	35000185 	cbnz	w5, 403374 <_nl_load_domain+0xed4>
  403348:	35000132 	cbnz	w18, 40336c <_nl_load_domain+0xecc>
  40334c:	350000d1 	cbnz	w17, 403364 <_nl_load_domain+0xec4>
  403350:	7100019f 	cmp	w12, #0x0
  403354:	9a890101 	csel	x1, x8, x9, eq  // eq = none
  403358:	17fffd31 	b	40281c <_nl_load_domain+0x37c>
  40335c:	aa0d03e1 	mov	x1, x13
  403360:	17fffd2f 	b	40281c <_nl_load_domain+0x37c>
  403364:	aa0d03e1 	mov	x1, x13
  403368:	17fffd2d 	b	40281c <_nl_load_domain+0x37c>
  40336c:	aa0e03e1 	mov	x1, x14
  403370:	17fffd2b 	b	40281c <_nl_load_domain+0x37c>
  403374:	aa0f03e1 	mov	x1, x15
  403378:	17fffd29 	b	40281c <_nl_load_domain+0x37c>
  40337c:	aa1003e1 	mov	x1, x16
  403380:	17fffd27 	b	40281c <_nl_load_domain+0x37c>
  403384:	d2800001 	mov	x1, #0x0                   	// #0
  403388:	17fffd25 	b	40281c <_nl_load_domain+0x37c>
  40338c:	aa0e03e1 	mov	x1, x14
  403390:	17fffd23 	b	40281c <_nl_load_domain+0x37c>
  403394:	aa0f03e1 	mov	x1, x15
  403398:	17fffd21 	b	40281c <_nl_load_domain+0x37c>
  40339c:	aa1003e1 	mov	x1, x16
  4033a0:	17fffd1f 	b	40281c <_nl_load_domain+0x37c>
  4033a4:	d2800001 	mov	x1, #0x0                   	// #0
  4033a8:	17fffd1d 	b	40281c <_nl_load_domain+0x37c>
  4033ac:	39402401 	ldrb	w1, [x0, #9]
  4033b0:	7100d83f 	cmp	w1, #0x36
  4033b4:	54000200 	b.eq	4033f4 <_nl_load_domain+0xf54>  // b.none
  4033b8:	d2800001 	mov	x1, #0x0                   	// #0
  4033bc:	17fffd18 	b	40281c <_nl_load_domain+0x37c>
  4033c0:	39402400 	ldrb	w0, [x0, #9]
  4033c4:	35000500 	cbnz	w0, 403464 <_nl_load_domain+0xfc4>
  4033c8:	7101905f 	cmp	w2, #0x64
  4033cc:	54000480 	b.eq	40345c <_nl_load_domain+0xfbc>  // b.none
  4033d0:	35000425 	cbnz	w5, 403454 <_nl_load_domain+0xfb4>
  4033d4:	350003d2 	cbnz	w18, 40344c <_nl_load_domain+0xfac>
  4033d8:	35000231 	cbnz	w17, 40341c <_nl_load_domain+0xf7c>
  4033dc:	f94067a0 	ldr	x0, [x29, #200]
  4033e0:	7100019f 	cmp	w12, #0x0
  4033e4:	900002e1 	adrp	x1, 45f000 <translit_from_idx+0x1228>
  4033e8:	91378021 	add	x1, x1, #0xde0
  4033ec:	9a800021 	csel	x1, x1, x0, eq  // eq = none
  4033f0:	17fffd0b 	b	40281c <_nl_load_domain+0x37c>
  4033f4:	39402800 	ldrb	w0, [x0, #10]
  4033f8:	35000260 	cbnz	w0, 403444 <_nl_load_domain+0xfa4>
  4033fc:	7101905f 	cmp	w2, #0x64
  403400:	540001e0 	b.eq	40343c <_nl_load_domain+0xf9c>  // b.none
  403404:	35000185 	cbnz	w5, 403434 <_nl_load_domain+0xf94>
  403408:	35000132 	cbnz	w18, 40342c <_nl_load_domain+0xf8c>
  40340c:	350000d1 	cbnz	w17, 403424 <_nl_load_domain+0xf84>
  403410:	7100019f 	cmp	w12, #0x0
  403414:	9a890101 	csel	x1, x8, x9, eq  // eq = none
  403418:	17fffd01 	b	40281c <_nl_load_domain+0x37c>
  40341c:	f9406ba1 	ldr	x1, [x29, #208]
  403420:	17fffcff 	b	40281c <_nl_load_domain+0x37c>
  403424:	aa0d03e1 	mov	x1, x13
  403428:	17fffcfd 	b	40281c <_nl_load_domain+0x37c>
  40342c:	aa0e03e1 	mov	x1, x14
  403430:	17fffcfb 	b	40281c <_nl_load_domain+0x37c>
  403434:	aa0f03e1 	mov	x1, x15
  403438:	17fffcf9 	b	40281c <_nl_load_domain+0x37c>
  40343c:	aa1003e1 	mov	x1, x16
  403440:	17fffcf7 	b	40281c <_nl_load_domain+0x37c>
  403444:	d2800001 	mov	x1, #0x0                   	// #0
  403448:	17fffcf5 	b	40281c <_nl_load_domain+0x37c>
  40344c:	aa1e03e1 	mov	x1, x30
  403450:	17fffcf3 	b	40281c <_nl_load_domain+0x37c>
  403454:	aa0603e1 	mov	x1, x6
  403458:	17fffcf1 	b	40281c <_nl_load_domain+0x37c>
  40345c:	aa0703e1 	mov	x1, x7
  403460:	17fffcef 	b	40281c <_nl_load_domain+0x37c>
  403464:	d2800001 	mov	x1, #0x0                   	// #0
  403468:	17fffced 	b	40281c <_nl_load_domain+0x37c>
  40346c:	aa0e03e1 	mov	x1, x14
  403470:	17fffceb 	b	40281c <_nl_load_domain+0x37c>
  403474:	aa0f03e1 	mov	x1, x15
  403478:	17fffce9 	b	40281c <_nl_load_domain+0x37c>
  40347c:	aa1003e1 	mov	x1, x16
  403480:	17fffce7 	b	40281c <_nl_load_domain+0x37c>
  403484:	d2800001 	mov	x1, #0x0                   	// #0
  403488:	17fffce5 	b	40281c <_nl_load_domain+0x37c>
  40348c:	aa0e03e1 	mov	x1, x14
  403490:	17fffce3 	b	40281c <_nl_load_domain+0x37c>
  403494:	aa0f03e1 	mov	x1, x15
  403498:	17fffce1 	b	40281c <_nl_load_domain+0x37c>
  40349c:	aa1003e1 	mov	x1, x16
  4034a0:	17fffcdf 	b	40281c <_nl_load_domain+0x37c>
  4034a4:	d2800001 	mov	x1, #0x0                   	// #0
  4034a8:	17fffcdd 	b	40281c <_nl_load_domain+0x37c>
  4034ac:	aa1e03e1 	mov	x1, x30
  4034b0:	17fffcdb 	b	40281c <_nl_load_domain+0x37c>
  4034b4:	aa0603e1 	mov	x1, x6
  4034b8:	17fffcd9 	b	40281c <_nl_load_domain+0x37c>
  4034bc:	b87378a0 	ldr	w0, [x5, x19, lsl #2]
  4034c0:	17fffe3b 	b	402dac <_nl_load_domain+0x90c>
  4034c4:	f9406ba1 	ldr	x1, [x29, #208]
  4034c8:	17fffcd5 	b	40281c <_nl_load_domain+0x37c>
  4034cc:	9400078d 	bl	405300 <abort>
  4034d0:	b87378a0 	ldr	w0, [x5, x19, lsl #2]
  4034d4:	17fffeaa 	b	402f7c <_nl_load_domain+0xadc>
  4034d8:	f94053a0 	ldr	x0, [x29, #160]
  4034dc:	52800038 	mov	w24, #0x1                   	// #1
  4034e0:	b940181c 	ldr	w28, [x0, #24]
  4034e4:	17fffe47 	b	402e00 <_nl_load_domain+0x960>
  4034e8:	f9405ba0 	ldr	x0, [x29, #176]
  4034ec:	f94067b7 	ldr	x23, [x29, #200]
  4034f0:	b8747801 	ldr	w1, [x0, x20, lsl #2]
  4034f4:	8b010340 	add	x0, x26, x1
  4034f8:	b8616b55 	ldr	w21, [x26, x1]
  4034fc:	8b150355 	add	x21, x26, x21
  403500:	17fffeae 	b	402fb8 <_nl_load_domain+0xb18>
  403504:	f9406ba1 	ldr	x1, [x29, #208]
  403508:	17fffcc5 	b	40281c <_nl_load_domain+0x37c>
  40350c:	aa1e03e1 	mov	x1, x30
  403510:	17fffcc3 	b	40281c <_nl_load_domain+0x37c>
  403514:	aa0603e1 	mov	x1, x6
  403518:	17fffcc1 	b	40281c <_nl_load_domain+0x37c>
  40351c:	f9406ba1 	ldr	x1, [x29, #208]
  403520:	17fffcbf 	b	40281c <_nl_load_domain+0x37c>
  403524:	aa1e03e1 	mov	x1, x30
  403528:	17fffcbd 	b	40281c <_nl_load_domain+0x37c>
  40352c:	aa0603e1 	mov	x1, x6
  403530:	17fffcbb 	b	40281c <_nl_load_domain+0x37c>
  403534:	aa0703e1 	mov	x1, x7
  403538:	17fffcb9 	b	40281c <_nl_load_domain+0x37c>
  40353c:	39401c01 	ldrb	w1, [x0, #7]
  403540:	71014c3f 	cmp	w1, #0x53
  403544:	54000060 	b.eq	403550 <_nl_load_domain+0x10b0>  // b.none
  403548:	d2800001 	mov	x1, #0x0                   	// #0
  40354c:	17fffcb4 	b	40281c <_nl_load_domain+0x37c>
  403550:	39402001 	ldrb	w1, [x0, #8]
  403554:	7101503f 	cmp	w1, #0x54
  403558:	54000060 	b.eq	403564 <_nl_load_domain+0x10c4>  // b.none
  40355c:	d2800001 	mov	x1, #0x0                   	// #0
  403560:	17fffcaf 	b	40281c <_nl_load_domain+0x37c>
  403564:	39402401 	ldrb	w1, [x0, #9]
  403568:	7100e03f 	cmp	w1, #0x38
  40356c:	54000120 	b.eq	403590 <_nl_load_domain+0x10f0>  // b.none
  403570:	7100c43f 	cmp	w1, #0x31
  403574:	54000780 	b.eq	403664 <_nl_load_domain+0x11c4>  // b.none
  403578:	7100cc3f 	cmp	w1, #0x33
  40357c:	540006a0 	b.eq	403650 <_nl_load_domain+0x11b0>  // b.none
  403580:	7100d83f 	cmp	w1, #0x36
  403584:	54000200 	b.eq	4035c4 <_nl_load_domain+0x1124>  // b.none
  403588:	d2800001 	mov	x1, #0x0                   	// #0
  40358c:	17fffca4 	b	40281c <_nl_load_domain+0x37c>
  403590:	39402800 	ldrb	w0, [x0, #10]
  403594:	350005a0 	cbnz	w0, 403648 <_nl_load_domain+0x11a8>
  403598:	7101905f 	cmp	w2, #0x64
  40359c:	54000520 	b.eq	403640 <_nl_load_domain+0x11a0>  // b.none
  4035a0:	35000385 	cbnz	w5, 403610 <_nl_load_domain+0x1170>
  4035a4:	35000332 	cbnz	w18, 403608 <_nl_load_domain+0x1168>
  4035a8:	35000191 	cbnz	w17, 4035d8 <_nl_load_domain+0x1138>
  4035ac:	f94067a0 	ldr	x0, [x29, #200]
  4035b0:	7100019f 	cmp	w12, #0x0
  4035b4:	900002e1 	adrp	x1, 45f000 <translit_from_idx+0x1228>
  4035b8:	91378021 	add	x1, x1, #0xde0
  4035bc:	9a800021 	csel	x1, x1, x0, eq  // eq = none
  4035c0:	17fffc97 	b	40281c <_nl_load_domain+0x37c>
  4035c4:	39402801 	ldrb	w1, [x0, #10]
  4035c8:	7100d03f 	cmp	w1, #0x34
  4035cc:	540000a0 	b.eq	4035e0 <_nl_load_domain+0x1140>  // b.none
  4035d0:	d2800001 	mov	x1, #0x0                   	// #0
  4035d4:	17fffc92 	b	40281c <_nl_load_domain+0x37c>
  4035d8:	f9406ba1 	ldr	x1, [x29, #208]
  4035dc:	17fffc90 	b	40281c <_nl_load_domain+0x37c>
  4035e0:	39402c00 	ldrb	w0, [x0, #11]
  4035e4:	350002a0 	cbnz	w0, 403638 <_nl_load_domain+0x1198>
  4035e8:	7101905f 	cmp	w2, #0x64
  4035ec:	54000220 	b.eq	403630 <_nl_load_domain+0x1190>  // b.none
  4035f0:	350001c5 	cbnz	w5, 403628 <_nl_load_domain+0x1188>
  4035f4:	35000172 	cbnz	w18, 403620 <_nl_load_domain+0x1180>
  4035f8:	35000111 	cbnz	w17, 403618 <_nl_load_domain+0x1178>
  4035fc:	7100019f 	cmp	w12, #0x0
  403600:	9a890101 	csel	x1, x8, x9, eq  // eq = none
  403604:	17fffc86 	b	40281c <_nl_load_domain+0x37c>
  403608:	aa1e03e1 	mov	x1, x30
  40360c:	17fffc84 	b	40281c <_nl_load_domain+0x37c>
  403610:	aa0603e1 	mov	x1, x6
  403614:	17fffc82 	b	40281c <_nl_load_domain+0x37c>
  403618:	aa0d03e1 	mov	x1, x13
  40361c:	17fffc80 	b	40281c <_nl_load_domain+0x37c>
  403620:	aa0e03e1 	mov	x1, x14
  403624:	17fffc7e 	b	40281c <_nl_load_domain+0x37c>
  403628:	aa0f03e1 	mov	x1, x15
  40362c:	17fffc7c 	b	40281c <_nl_load_domain+0x37c>
  403630:	aa1003e1 	mov	x1, x16
  403634:	17fffc7a 	b	40281c <_nl_load_domain+0x37c>
  403638:	d2800001 	mov	x1, #0x0                   	// #0
  40363c:	17fffc78 	b	40281c <_nl_load_domain+0x37c>
  403640:	aa0703e1 	mov	x1, x7
  403644:	17fffc76 	b	40281c <_nl_load_domain+0x37c>
  403648:	d2800001 	mov	x1, #0x0                   	// #0
  40364c:	17fffc74 	b	40281c <_nl_load_domain+0x37c>
  403650:	39402801 	ldrb	w1, [x0, #10]
  403654:	7100c83f 	cmp	w1, #0x32
  403658:	54000100 	b.eq	403678 <_nl_load_domain+0x11d8>  // b.none
  40365c:	d2800001 	mov	x1, #0x0                   	// #0
  403660:	17fffc6f 	b	40281c <_nl_load_domain+0x37c>
  403664:	39402801 	ldrb	w1, [x0, #10]
  403668:	7100d83f 	cmp	w1, #0x36
  40366c:	54000200 	b.eq	4036ac <_nl_load_domain+0x120c>  // b.none
  403670:	d2800001 	mov	x1, #0x0                   	// #0
  403674:	17fffc6a 	b	40281c <_nl_load_domain+0x37c>
  403678:	39402c00 	ldrb	w0, [x0, #11]
  40367c:	35000560 	cbnz	w0, 403728 <_nl_load_domain+0x1288>
  403680:	7101905f 	cmp	w2, #0x64
  403684:	540004e0 	b.eq	403720 <_nl_load_domain+0x1280>  // b.none
  403688:	35000485 	cbnz	w5, 403718 <_nl_load_domain+0x1278>
  40368c:	35000432 	cbnz	w18, 403710 <_nl_load_domain+0x1270>
  403690:	35000291 	cbnz	w17, 4036e0 <_nl_load_domain+0x1240>
  403694:	f94067a0 	ldr	x0, [x29, #200]
  403698:	7100019f 	cmp	w12, #0x0
  40369c:	900002e1 	adrp	x1, 45f000 <translit_from_idx+0x1228>
  4036a0:	91378021 	add	x1, x1, #0xde0
  4036a4:	9a800021 	csel	x1, x1, x0, eq  // eq = none
  4036a8:	17fffc5d 	b	40281c <_nl_load_domain+0x37c>
  4036ac:	39402c00 	ldrb	w0, [x0, #11]
  4036b0:	350002c0 	cbnz	w0, 403708 <_nl_load_domain+0x1268>
  4036b4:	7101905f 	cmp	w2, #0x64
  4036b8:	54000240 	b.eq	403700 <_nl_load_domain+0x1260>  // b.none
  4036bc:	350001e5 	cbnz	w5, 4036f8 <_nl_load_domain+0x1258>
  4036c0:	35000192 	cbnz	w18, 4036f0 <_nl_load_domain+0x1250>
  4036c4:	35000131 	cbnz	w17, 4036e8 <_nl_load_domain+0x1248>
  4036c8:	f94067a0 	ldr	x0, [x29, #200]
  4036cc:	7100019f 	cmp	w12, #0x0
  4036d0:	900002e1 	adrp	x1, 45f000 <translit_from_idx+0x1228>
  4036d4:	91378021 	add	x1, x1, #0xde0
  4036d8:	9a800021 	csel	x1, x1, x0, eq  // eq = none
  4036dc:	17fffc50 	b	40281c <_nl_load_domain+0x37c>
  4036e0:	f9406ba1 	ldr	x1, [x29, #208]
  4036e4:	17fffc4e 	b	40281c <_nl_load_domain+0x37c>
  4036e8:	f9406ba1 	ldr	x1, [x29, #208]
  4036ec:	17fffc4c 	b	40281c <_nl_load_domain+0x37c>
  4036f0:	aa1e03e1 	mov	x1, x30
  4036f4:	17fffc4a 	b	40281c <_nl_load_domain+0x37c>
  4036f8:	aa0603e1 	mov	x1, x6
  4036fc:	17fffc48 	b	40281c <_nl_load_domain+0x37c>
  403700:	aa0703e1 	mov	x1, x7
  403704:	17fffc46 	b	40281c <_nl_load_domain+0x37c>
  403708:	d2800001 	mov	x1, #0x0                   	// #0
  40370c:	17fffc44 	b	40281c <_nl_load_domain+0x37c>
  403710:	aa1e03e1 	mov	x1, x30
  403714:	17fffc42 	b	40281c <_nl_load_domain+0x37c>
  403718:	aa0603e1 	mov	x1, x6
  40371c:	17fffc40 	b	40281c <_nl_load_domain+0x37c>
  403720:	aa0703e1 	mov	x1, x7
  403724:	17fffc3e 	b	40281c <_nl_load_domain+0x37c>
  403728:	d2800001 	mov	x1, #0x0                   	// #0
  40372c:	17fffc3c 	b	40281c <_nl_load_domain+0x37c>

0000000000403730 <alias_compare>:
  403730:	f9400000 	ldr	x0, [x0]
  403734:	900002e2 	adrp	x2, 45f000 <translit_from_idx+0x1228>
  403738:	f9400021 	ldr	x1, [x1]
  40373c:	910ee042 	add	x2, x2, #0x3b8
  403740:	14004aa0 	b	4161c0 <__strcasecmp_l>
  403744:	d503201f 	nop

0000000000403748 <read_alias_file>:
  403748:	d10903ff 	sub	sp, sp, #0x240
  40374c:	93407c22 	sxtw	x2, w1
  403750:	9100b043 	add	x3, x2, #0x2c
  403754:	f00003c1 	adrp	x1, 47e000 <__FRAME_END__+0x105ac>
  403758:	927cec63 	and	x3, x3, #0xfffffffffffffff0
  40375c:	9128e024 	add	x4, x1, #0xa38
  403760:	a9007bfd 	stp	x29, x30, [sp]
  403764:	910003fd 	mov	x29, sp
  403768:	aa0003e1 	mov	x1, x0
  40376c:	f9400080 	ldr	x0, [x4]
  403770:	f9011fa0 	str	x0, [x29, #568]
  403774:	d2800000 	mov	x0, #0x0                   	// #0
  403778:	a90153f3 	stp	x19, x20, [sp, #16]
  40377c:	a9025bf5 	stp	x21, x22, [sp, #32]
  403780:	a90363f7 	stp	x23, x24, [sp, #48]
  403784:	d2800018 	mov	x24, #0x0                   	// #0
  403788:	a9046bf9 	stp	x25, x26, [sp, #64]
  40378c:	a90573fb 	stp	x27, x28, [sp, #80]
  403790:	cb2363ff 	sub	sp, sp, x3
  403794:	910003f3 	mov	x19, sp
  403798:	aa1303e0 	mov	x0, x19
  40379c:	94004a01 	bl	415fa0 <__mempcpy>
  4037a0:	90000262 	adrp	x2, 44f000 <_nl_locale_subfreeres+0x1b8>
  4037a4:	91242042 	add	x2, x2, #0x908
  4037a8:	aa0003e3 	mov	x3, x0
  4037ac:	90000261 	adrp	x1, 44f000 <_nl_locale_subfreeres+0x1b8>
  4037b0:	aa1303e0 	mov	x0, x19
  4037b4:	91240021 	add	x1, x1, #0x900
  4037b8:	f9400044 	ldr	x4, [x2]
  4037bc:	f8406042 	ldur	x2, [x2, #6]
  4037c0:	f9000064 	str	x4, [x3]
  4037c4:	f8006062 	stur	x2, [x3, #6]
  4037c8:	94001014 	bl	407818 <_IO_new_fopen>
  4037cc:	b4000540 	cbz	x0, 403874 <read_alias_file+0x12c>
  4037d0:	b9400001 	ldr	w1, [x0]
  4037d4:	aa0003f4 	mov	x20, x0
  4037d8:	32110022 	orr	w2, w1, #0x8000
  4037dc:	b9000002 	str	w2, [x0]
  4037e0:	37201ac1 	tbnz	w1, #4, 403b38 <read_alias_file+0x3f0>
  4037e4:	f00003c0 	adrp	x0, 47e000 <__FRAME_END__+0x105ac>
  4037e8:	f947d400 	ldr	x0, [x0, #4008]
  4037ec:	d53bd055 	mrs	x21, tpidr_el0
  4037f0:	b00003f6 	adrp	x22, 480000 <__progname_full>
  4037f4:	913d62d6 	add	x22, x22, #0xf58
  4037f8:	8b0002b5 	add	x21, x21, x0
  4037fc:	d503201f 	nop
  403800:	aa1403e2 	mov	x2, x20
  403804:	52803201 	mov	w1, #0x190                 	// #400
  403808:	9102a3a0 	add	x0, x29, #0xa8
  40380c:	94001791 	bl	409650 <__fgets_unlocked>
  403810:	b40002c0 	cbz	x0, 403868 <read_alias_file+0x120>
  403814:	52800141 	mov	w1, #0xa                   	// #10
  403818:	9102a3a0 	add	x0, x29, #0xa8
  40381c:	940044f1 	bl	414be0 <strchr>
  403820:	aa0003fa 	mov	x26, x0
  403824:	3942a3a0 	ldrb	w0, [x29, #168]
  403828:	9102a3b3 	add	x19, x29, #0xa8
  40382c:	f94002a1 	ldr	x1, [x21]
  403830:	d37f1c02 	ubfiz	x2, x0, #1, #8
  403834:	78626822 	ldrh	w2, [x1, x2]
  403838:	366800c2 	tbz	w2, #13, 403850 <read_alias_file+0x108>
  40383c:	d503201f 	nop
  403840:	38401e60 	ldrb	w0, [x19, #1]!
  403844:	d37f1c02 	ubfiz	x2, x0, #1, #8
  403848:	78626822 	ldrh	w2, [x1, x2]
  40384c:	376fffa2 	tbnz	w2, #13, 403840 <read_alias_file+0xf8>
  403850:	71008c1f 	cmp	w0, #0x23
  403854:	7a401804 	ccmp	w0, #0x0, #0x4, ne  // ne = any
  403858:	54000421 	b.ne	4038dc <read_alias_file+0x194>  // b.any
  40385c:	b400035a 	cbz	x26, 4038c4 <read_alias_file+0x17c>
  403860:	b9400280 	ldr	w0, [x20]
  403864:	3627fce0 	tbz	w0, #4, 403800 <read_alias_file+0xb8>
  403868:	aa1403e0 	mov	x0, x20
  40386c:	94000e95 	bl	4072c0 <_IO_new_fclose>
  403870:	b5001158 	cbnz	x24, 403a98 <read_alias_file+0x350>
  403874:	f00003c0 	adrp	x0, 47e000 <__FRAME_END__+0x105ac>
  403878:	9128e017 	add	x23, x0, #0xa38
  40387c:	f9411fa2 	ldr	x2, [x29, #568]
  403880:	f94002e1 	ldr	x1, [x23]
  403884:	ca010041 	eor	x1, x2, x1
  403888:	aa1803e0 	mov	x0, x24
  40388c:	b50015a1 	cbnz	x1, 403b40 <read_alias_file+0x3f8>
  403890:	910003bf 	mov	sp, x29
  403894:	a9407bfd 	ldp	x29, x30, [sp]
  403898:	a94153f3 	ldp	x19, x20, [sp, #16]
  40389c:	a9425bf5 	ldp	x21, x22, [sp, #32]
  4038a0:	a94363f7 	ldp	x23, x24, [sp, #48]
  4038a4:	a9446bf9 	ldp	x25, x26, [sp, #64]
  4038a8:	a94573fb 	ldp	x27, x28, [sp, #80]
  4038ac:	910903ff 	add	sp, sp, #0x240
  4038b0:	d65f03c0 	ret
  4038b4:	52800141 	mov	w1, #0xa                   	// #10
  4038b8:	9102a3a0 	add	x0, x29, #0xa8
  4038bc:	940044c9 	bl	414be0 <strchr>
  4038c0:	b5fffd00 	cbnz	x0, 403860 <read_alias_file+0x118>
  4038c4:	aa1403e2 	mov	x2, x20
  4038c8:	52803201 	mov	w1, #0x190                 	// #400
  4038cc:	9102a3a0 	add	x0, x29, #0xa8
  4038d0:	94001760 	bl	409650 <__fgets_unlocked>
  4038d4:	b5ffff00 	cbnz	x0, 4038b4 <read_alias_file+0x16c>
  4038d8:	17ffffe2 	b	403860 <read_alias_file+0x118>
  4038dc:	39400662 	ldrb	w2, [x19, #1]
  4038e0:	91000663 	add	x3, x19, #0x1
  4038e4:	d37f1c40 	ubfiz	x0, x2, #1, #8
  4038e8:	78606820 	ldrh	w0, [x1, x0]
  4038ec:	12130000 	and	w0, w0, #0x2000
  4038f0:	34000102 	cbz	w2, 403910 <read_alias_file+0x1c8>
  4038f4:	d503201f 	nop
  4038f8:	350008e0 	cbnz	w0, 403a14 <read_alias_file+0x2cc>
  4038fc:	38401c62 	ldrb	w2, [x3, #1]!
  403900:	d37f1c40 	ubfiz	x0, x2, #1, #8
  403904:	78606820 	ldrh	w0, [x1, x0]
  403908:	12130000 	and	w0, w0, #0x2000
  40390c:	35ffff62 	cbnz	w2, 4038f8 <read_alias_file+0x1b0>
  403910:	aa0303f9 	mov	x25, x3
  403914:	34fffa40 	cbz	w0, 40385c <read_alias_file+0x114>
  403918:	38401f20 	ldrb	w0, [x25, #1]!
  40391c:	d37f1c02 	ubfiz	x2, x0, #1, #8
  403920:	78626822 	ldrh	w2, [x1, x2]
  403924:	376fffa2 	tbnz	w2, #13, 403918 <read_alias_file+0x1d0>
  403928:	34fff9a0 	cbz	w0, 40385c <read_alias_file+0x114>
  40392c:	39400720 	ldrb	w0, [x25, #1]
  403930:	91000722 	add	x2, x25, #0x1
  403934:	35000080 	cbnz	w0, 403944 <read_alias_file+0x1fc>
  403938:	1400000a 	b	403960 <read_alias_file+0x218>
  40393c:	38401c40 	ldrb	w0, [x2, #1]!
  403940:	34000100 	cbz	w0, 403960 <read_alias_file+0x218>
  403944:	d37f1c03 	ubfiz	x3, x0, #1, #8
  403948:	78636823 	ldrh	w3, [x1, x3]
  40394c:	366fff83 	tbz	w3, #13, 40393c <read_alias_file+0x1f4>
  403950:	7100281f 	cmp	w0, #0xa
  403954:	54000c81 	b.ne	403ae4 <read_alias_file+0x39c>  // b.any
  403958:	52814000 	mov	w0, #0xa00                 	// #2560
  40395c:	79000040 	strh	w0, [x2]
  403960:	a94002db 	ldp	x27, x0, [x22]
  403964:	f00003f7 	adrp	x23, 482000 <_dl_sysinfo_map>
  403968:	eb00037f 	cmp	x27, x0
  40396c:	54000a82 	b.cs	403abc <read_alias_file+0x374>  // b.hs, b.nlast
  403970:	aa1303e0 	mov	x0, x19
  403974:	940045f3 	bl	415140 <__strlen>
  403978:	91000402 	add	x2, x0, #0x1
  40397c:	aa1903e0 	mov	x0, x25
  403980:	f9004fa2 	str	x2, [x29, #152]
  403984:	940045ef 	bl	415140 <__strlen>
  403988:	91000406 	add	x6, x0, #0x1
  40398c:	a94102ca 	ldp	x10, x0, [x22, #16]
  403990:	9104e2e4 	add	x4, x23, #0x138
  403994:	f9404fa2 	ldr	x2, [x29, #152]
  403998:	8b020149 	add	x9, x10, x2
  40399c:	f940049c 	ldr	x28, [x4, #8]
  4039a0:	8b060128 	add	x8, x9, x6
  4039a4:	eb00011f 	cmp	x8, x0
  4039a8:	54000469 	b.ls	403a34 <read_alias_file+0x2ec>  // b.plast
  4039ac:	8b060041 	add	x1, x2, x6
  4039b0:	d2808005 	mov	x5, #0x400                 	// #1024
  4039b4:	f110003f 	cmp	x1, #0x400
  4039b8:	a906a3a4 	stp	x4, x8, [x29, #104]
  4039bc:	9a852021 	csel	x1, x1, x5, cs  // cs = hs, nlast
  4039c0:	a907aba9 	stp	x9, x10, [x29, #120]
  4039c4:	8b000025 	add	x5, x1, x0
  4039c8:	a9088ba6 	stp	x6, x2, [x29, #136]
  4039cc:	aa0503e1 	mov	x1, x5
  4039d0:	aa1c03e0 	mov	x0, x28
  4039d4:	f9004fa5 	str	x5, [x29, #152]
  4039d8:	94004024 	bl	413a68 <__libc_realloc>
  4039dc:	b4fff460 	cbz	x0, 403868 <read_alias_file+0x120>
  4039e0:	a946a3a4 	ldp	x4, x8, [x29, #104]
  4039e4:	eb1c001f 	cmp	x0, x28
  4039e8:	a947aba9 	ldp	x9, x10, [x29, #120]
  4039ec:	f9400087 	ldr	x7, [x4]
  4039f0:	d37cef64 	lsl	x4, x27, #4
  4039f4:	a9488ba6 	ldp	x6, x2, [x29, #136]
  4039f8:	f9404fa5 	ldr	x5, [x29, #152]
  4039fc:	540007e1 	b.ne	403af8 <read_alias_file+0x3b0>  // b.any
  403a00:	9104e2e3 	add	x3, x23, #0x138
  403a04:	aa0003fc 	mov	x28, x0
  403a08:	f9000ec5 	str	x5, [x22, #24]
  403a0c:	f9000460 	str	x0, [x3, #8]
  403a10:	1400000b 	b	403a3c <read_alias_file+0x2f4>
  403a14:	39400460 	ldrb	w0, [x3, #1]
  403a18:	91000479 	add	x25, x3, #0x1
  403a1c:	3900007f 	strb	wzr, [x3]
  403a20:	d37f1c02 	ubfiz	x2, x0, #1, #8
  403a24:	78626822 	ldrh	w2, [x1, x2]
  403a28:	376ff782 	tbnz	w2, #13, 403918 <read_alias_file+0x1d0>
  403a2c:	34fff180 	cbz	w0, 40385c <read_alias_file+0x114>
  403a30:	17ffffbf 	b	40392c <read_alias_file+0x1e4>
  403a34:	f9409ee7 	ldr	x7, [x23, #312]
  403a38:	d37cef64 	lsl	x4, x27, #4
  403a3c:	8b0400e3 	add	x3, x7, x4
  403a40:	a90723a6 	stp	x6, x8, [x29, #112]
  403a44:	aa1303e1 	mov	x1, x19
  403a48:	8b0a0380 	add	x0, x28, x10
  403a4c:	a90813a9 	stp	x9, x4, [x29, #128]
  403a50:	9100077b 	add	x27, x27, #0x1
  403a54:	a9090fa7 	stp	x7, x3, [x29, #144]
  403a58:	97fff1fe 	bl	400250 <.plt+0x10>
  403a5c:	a94813a9 	ldp	x9, x4, [x29, #128]
  403a60:	aa1903e1 	mov	x1, x25
  403a64:	f9404ba7 	ldr	x7, [x29, #144]
  403a68:	91000718 	add	x24, x24, #0x1
  403a6c:	f9403ba6 	ldr	x6, [x29, #112]
  403a70:	f82468e0 	str	x0, [x7, x4]
  403a74:	aa0603e2 	mov	x2, x6
  403a78:	8b090380 	add	x0, x28, x9
  403a7c:	97fff1f5 	bl	400250 <.plt+0x10>
  403a80:	f90002db 	str	x27, [x22]
  403a84:	f9404fa3 	ldr	x3, [x29, #152]
  403a88:	f9403fa8 	ldr	x8, [x29, #120]
  403a8c:	f9000ac8 	str	x8, [x22, #16]
  403a90:	f9000460 	str	x0, [x3, #8]
  403a94:	17ffff72 	b	40385c <read_alias_file+0x114>
  403a98:	b00003e1 	adrp	x1, 480000 <__progname_full>
  403a9c:	f00003e0 	adrp	x0, 482000 <_dl_sysinfo_map>
  403aa0:	90000003 	adrp	x3, 403000 <_nl_load_domain+0xb60>
  403aa4:	d2800202 	mov	x2, #0x10                  	// #16
  403aa8:	f947ac21 	ldr	x1, [x1, #3928]
  403aac:	911cc063 	add	x3, x3, #0x730
  403ab0:	f9409c00 	ldr	x0, [x0, #312]
  403ab4:	94000823 	bl	405b40 <qsort>
  403ab8:	17ffff6f 	b	403874 <read_alias_file+0x12c>
  403abc:	b5000180 	cbnz	x0, 403aec <read_alias_file+0x3a4>
  403ac0:	d280c801 	mov	x1, #0x640                 	// #1600
  403ac4:	d2800c9c 	mov	x28, #0x64                  	// #100
  403ac8:	f00003f7 	adrp	x23, 482000 <_dl_sysinfo_map>
  403acc:	f9409ee0 	ldr	x0, [x23, #312]
  403ad0:	94003fe6 	bl	413a68 <__libc_realloc>
  403ad4:	b4ffeca0 	cbz	x0, 403868 <read_alias_file+0x120>
  403ad8:	f9009ee0 	str	x0, [x23, #312]
  403adc:	f90006dc 	str	x28, [x22, #8]
  403ae0:	17ffffa4 	b	403970 <read_alias_file+0x228>
  403ae4:	3900005f 	strb	wzr, [x2]
  403ae8:	17ffff9e 	b	403960 <read_alias_file+0x218>
  403aec:	d37ff81c 	lsl	x28, x0, #1
  403af0:	d37be801 	lsl	x1, x0, #5
  403af4:	17fffff5 	b	403ac8 <read_alias_file+0x380>
  403af8:	b40001db 	cbz	x27, 403b30 <read_alias_file+0x3e8>
  403afc:	cb1c001c 	sub	x28, x0, x28
  403b00:	aa0703e1 	mov	x1, x7
  403b04:	8b0400ec 	add	x12, x7, x4
  403b08:	f940002b 	ldr	x11, [x1]
  403b0c:	91004021 	add	x1, x1, #0x10
  403b10:	8b1c016b 	add	x11, x11, x28
  403b14:	f81f002b 	stur	x11, [x1, #-16]
  403b18:	f85f802b 	ldur	x11, [x1, #-8]
  403b1c:	8b1c016b 	add	x11, x11, x28
  403b20:	f81f802b 	stur	x11, [x1, #-8]
  403b24:	eb01019f 	cmp	x12, x1
  403b28:	54ffff01 	b.ne	403b08 <read_alias_file+0x3c0>  // b.any
  403b2c:	17ffffb5 	b	403a00 <read_alias_file+0x2b8>
  403b30:	d2800004 	mov	x4, #0x0                   	// #0
  403b34:	17ffffb3 	b	403a00 <read_alias_file+0x2b8>
  403b38:	94000de2 	bl	4072c0 <_IO_new_fclose>
  403b3c:	17ffff4e 	b	403874 <read_alias_file+0x12c>
  403b40:	940059b8 	bl	41a220 <__stack_chk_fail>
  403b44:	d503201f 	nop

0000000000403b48 <_nl_expand_alias>:
  403b48:	a9bb7bfd 	stp	x29, x30, [sp, #-80]!
  403b4c:	910003fd 	mov	x29, sp
  403b50:	a9025bf5 	stp	x21, x22, [sp, #32]
  403b54:	b00003f5 	adrp	x21, 480000 <__progname_full>
  403b58:	913d62a1 	add	x1, x21, #0xf58
  403b5c:	a90153f3 	stp	x19, x20, [sp, #16]
  403b60:	a90363f7 	stp	x23, x24, [sp, #48]
  403b64:	aa0003f4 	mov	x20, x0
  403b68:	a9046bf9 	stp	x25, x26, [sp, #64]
  403b6c:	91008020 	add	x0, x1, #0x20
  403b70:	52800021 	mov	w1, #0x1                   	// #1
  403b74:	885ffc02 	ldaxr	w2, [x0]
  403b78:	35000062 	cbnz	w2, 403b84 <_nl_expand_alias+0x3c>
  403b7c:	88037c01 	stxr	w3, w1, [x0]
  403b80:	35ffffa3 	cbnz	w3, 403b74 <_nl_expand_alias+0x2c>
  403b84:	7100005f 	cmp	w2, #0x0
  403b88:	54000b61 	b.ne	403cf4 <_nl_expand_alias+0x1ac>  // b.any
  403b8c:	913d62a1 	add	x1, x21, #0xf58
  403b90:	f9401420 	ldr	x0, [x1, #40]
  403b94:	b4000a80 	cbz	x0, 403ce4 <_nl_expand_alias+0x19c>
  403b98:	f947aeb7 	ldr	x23, [x21, #3928]
  403b9c:	900002f3 	adrp	x19, 45f000 <translit_from_idx+0x1228>
  403ba0:	910ee273 	add	x19, x19, #0x3b8
  403ba4:	b5000717 	cbnz	x23, 403c84 <_nl_expand_alias+0x13c>
  403ba8:	913d62b6 	add	x22, x21, #0xf58
  403bac:	f94016c4 	ldr	x4, [x22, #40]
  403bb0:	52800001 	mov	w1, #0x0                   	// #0
  403bb4:	39400080 	ldrb	w0, [x4]
  403bb8:	34000320 	cbz	w0, 403c1c <_nl_expand_alias+0xd4>
  403bbc:	d503201f 	nop
  403bc0:	91000481 	add	x1, x4, #0x1
  403bc4:	7100e81f 	cmp	w0, #0x3a
  403bc8:	54000861 	b.ne	403cd4 <_nl_expand_alias+0x18c>  // b.any
  403bcc:	d503201f 	nop
  403bd0:	aa0103e0 	mov	x0, x1
  403bd4:	38401422 	ldrb	w2, [x1], #1
  403bd8:	7100e85f 	cmp	w2, #0x3a
  403bdc:	54ffffa0 	b.eq	403bd0 <_nl_expand_alias+0x88>  // b.none
  403be0:	34000402 	cbz	w2, 403c60 <_nl_expand_alias+0x118>
  403be4:	91000401 	add	x1, x0, #0x1
  403be8:	14000002 	b	403bf0 <_nl_expand_alias+0xa8>
  403bec:	aa0203e1 	mov	x1, x2
  403bf0:	aa0103e2 	mov	x2, x1
  403bf4:	aa0103e4 	mov	x4, x1
  403bf8:	38401443 	ldrb	w3, [x2], #1
  403bfc:	7100e87f 	cmp	w3, #0x3a
  403c00:	7a401864 	ccmp	w3, #0x0, #0x4, ne  // ne = any
  403c04:	54ffff41 	b.ne	403bec <_nl_expand_alias+0xa4>  // b.any
  403c08:	eb00003f 	cmp	x1, x0
  403c0c:	54000308 	b.hi	403c6c <_nl_expand_alias+0x124>  // b.pmore
  403c10:	52800021 	mov	w1, #0x1                   	// #1
  403c14:	39400080 	ldrb	w0, [x4]
  403c18:	35fffd40 	cbnz	w0, 403bc0 <_nl_expand_alias+0x78>
  403c1c:	35000881 	cbnz	w1, 403d2c <_nl_expand_alias+0x1e4>
  403c20:	d2800004 	mov	x4, #0x0                   	// #0
  403c24:	913d62a0 	add	x0, x21, #0xf58
  403c28:	52800002 	mov	w2, #0x0                   	// #0
  403c2c:	91008000 	add	x0, x0, #0x20
  403c30:	885f7c01 	ldxr	w1, [x0]
  403c34:	8803fc02 	stlxr	w3, w2, [x0]
  403c38:	35ffffc3 	cbnz	w3, 403c30 <_nl_expand_alias+0xe8>
  403c3c:	7100043f 	cmp	w1, #0x1
  403c40:	540005ec 	b.gt	403cfc <_nl_expand_alias+0x1b4>
  403c44:	aa0403e0 	mov	x0, x4
  403c48:	a94153f3 	ldp	x19, x20, [sp, #16]
  403c4c:	a9425bf5 	ldp	x21, x22, [sp, #32]
  403c50:	a94363f7 	ldp	x23, x24, [sp, #48]
  403c54:	a9446bf9 	ldp	x25, x26, [sp, #64]
  403c58:	a8c57bfd 	ldp	x29, x30, [sp], #80
  403c5c:	d65f03c0 	ret
  403c60:	aa0003e4 	mov	x4, x0
  403c64:	52800021 	mov	w1, #0x1                   	// #1
  403c68:	17ffffeb 	b	403c14 <_nl_expand_alias+0xcc>
  403c6c:	f90016c1 	str	x1, [x22, #40]
  403c70:	4b000021 	sub	w1, w1, w0
  403c74:	97fffeb5 	bl	403748 <read_alias_file>
  403c78:	b4fff9a0 	cbz	x0, 403bac <_nl_expand_alias+0x64>
  403c7c:	f947aeb7 	ldr	x23, [x21, #3928]
  403c80:	b4fff957 	cbz	x23, 403ba8 <_nl_expand_alias+0x60>
  403c84:	f00003e0 	adrp	x0, 482000 <_dl_sysinfo_map>
  403c88:	d2800018 	mov	x24, #0x0                   	// #0
  403c8c:	f9409c19 	ldr	x25, [x0, #312]
  403c90:	14000005 	b	403ca4 <_nl_expand_alias+0x15c>
  403c94:	54000240 	b.eq	403cdc <_nl_expand_alias+0x194>  // b.none
  403c98:	910006d8 	add	x24, x22, #0x1
  403c9c:	eb1802ff 	cmp	x23, x24
  403ca0:	54fff849 	b.ls	403ba8 <_nl_expand_alias+0x60>  // b.plast
  403ca4:	8b170316 	add	x22, x24, x23
  403ca8:	aa1303e2 	mov	x2, x19
  403cac:	aa1403e0 	mov	x0, x20
  403cb0:	d341fed6 	lsr	x22, x22, #1
  403cb4:	d37ceec1 	lsl	x1, x22, #4
  403cb8:	8b01033a 	add	x26, x25, x1
  403cbc:	f8616b21 	ldr	x1, [x25, x1]
  403cc0:	94004940 	bl	4161c0 <__strcasecmp_l>
  403cc4:	7100001f 	cmp	w0, #0x0
  403cc8:	54fffe6a 	b.ge	403c94 <_nl_expand_alias+0x14c>  // b.tcont
  403ccc:	aa1603f7 	mov	x23, x22
  403cd0:	17fffff3 	b	403c9c <_nl_expand_alias+0x154>
  403cd4:	aa0403e0 	mov	x0, x4
  403cd8:	17ffffc3 	b	403be4 <_nl_expand_alias+0x9c>
  403cdc:	f9400744 	ldr	x4, [x26, #8]
  403ce0:	17ffffd1 	b	403c24 <_nl_expand_alias+0xdc>
  403ce4:	90000260 	adrp	x0, 44f000 <_nl_locale_subfreeres+0x1b8>
  403ce8:	91214000 	add	x0, x0, #0x850
  403cec:	f9001420 	str	x0, [x1, #40]
  403cf0:	17ffffaa 	b	403b98 <_nl_expand_alias+0x50>
  403cf4:	940058e5 	bl	41a088 <__lll_lock_wait_private>
  403cf8:	17ffffa5 	b	403b8c <_nl_expand_alias+0x44>
  403cfc:	d2801021 	mov	x1, #0x81                  	// #129
  403d00:	d2800022 	mov	x2, #0x1                   	// #1
  403d04:	d2800003 	mov	x3, #0x0                   	// #0
  403d08:	d2800c48 	mov	x8, #0x62                  	// #98
  403d0c:	d4000001 	svc	#0x0
  403d10:	aa0403e0 	mov	x0, x4
  403d14:	a94153f3 	ldp	x19, x20, [sp, #16]
  403d18:	a9425bf5 	ldp	x21, x22, [sp, #32]
  403d1c:	a94363f7 	ldp	x23, x24, [sp, #48]
  403d20:	a9446bf9 	ldp	x25, x26, [sp, #64]
  403d24:	a8c57bfd 	ldp	x29, x30, [sp], #80
  403d28:	d65f03c0 	ret
  403d2c:	913d62a0 	add	x0, x21, #0xf58
  403d30:	f9001404 	str	x4, [x0, #40]
  403d34:	17ffffbb 	b	403c20 <_nl_expand_alias+0xd8>

0000000000403d38 <_nl_make_l10nflist>:
  403d38:	d102c3ff 	sub	sp, sp, #0xb0
  403d3c:	a9027bfd 	stp	x29, x30, [sp, #32]
  403d40:	910083fd 	add	x29, sp, #0x20
  403d44:	a90353f3 	stp	x19, x20, [sp, #48]
  403d48:	2a0303f4 	mov	w20, w3
  403d4c:	a9045bf5 	stp	x21, x22, [sp, #64]
  403d50:	121e0073 	and	w19, w3, #0x4
  403d54:	a90563f7 	stp	x23, x24, [sp, #80]
  403d58:	aa0203f6 	mov	x22, x2
  403d5c:	a9066bf9 	stp	x25, x26, [sp, #96]
  403d60:	aa0403f8 	mov	x24, x4
  403d64:	a9071fa5 	stp	x5, x7, [x29, #112]
  403d68:	aa0103f9 	mov	x25, x1
  403d6c:	a90803a6 	stp	x6, x0, [x29, #128]
  403d70:	aa0503f7 	mov	x23, x5
  403d74:	91000855 	add	x21, x2, #0x2
  403d78:	aa0403e0 	mov	x0, x4
  403d7c:	f9003bfb 	str	x27, [sp, #112]
  403d80:	940044f0 	bl	415140 <__strlen>
  403d84:	aa0003fa 	mov	x26, x0
  403d88:	361000b4 	tbz	w20, #2, 403d9c <_nl_make_l10nflist+0x64>
  403d8c:	aa1703e0 	mov	x0, x23
  403d90:	91000757 	add	x23, x26, #0x1
  403d94:	940044eb 	bl	415140 <__strlen>
  403d98:	8b0002fa 	add	x26, x23, x0
  403d9c:	121f0280 	and	w0, w20, #0x2
  403da0:	b9006ba0 	str	w0, [x29, #104]
  403da4:	d2800017 	mov	x23, #0x0                   	// #0
  403da8:	36080094 	tbz	w20, #1, 403db8 <_nl_make_l10nflist+0x80>
  403dac:	f94043a0 	ldr	x0, [x29, #128]
  403db0:	940044e4 	bl	415140 <__strlen>
  403db4:	91000417 	add	x23, x0, #0x1
  403db8:	12000280 	and	w0, w20, #0x1
  403dbc:	b90067a0 	str	w0, [x29, #100]
  403dc0:	360000b4 	tbz	w20, #0, 403dd4 <_nl_make_l10nflist+0x9c>
  403dc4:	f9403fa0 	ldr	x0, [x29, #120]
  403dc8:	910006f7 	add	x23, x23, #0x1
  403dcc:	940044dd 	bl	415140 <__strlen>
  403dd0:	8b0002f7 	add	x23, x23, x0
  403dd4:	121d0280 	and	w0, w20, #0x8
  403dd8:	b90063a0 	str	w0, [x29, #96]
  403ddc:	8b1a02f7 	add	x23, x23, x26
  403de0:	d280001a 	mov	x26, #0x0                   	// #0
  403de4:	8b1502f5 	add	x21, x23, x21
  403de8:	36180094 	tbz	w20, #3, 403df8 <_nl_make_l10nflist+0xc0>
  403dec:	f9404ba0 	ldr	x0, [x29, #144]
  403df0:	940044d4 	bl	415140 <__strlen>
  403df4:	9100041a 	add	x26, x0, #0x1
  403df8:	f9404fa0 	ldr	x0, [x29, #152]
  403dfc:	940044d1 	bl	415140 <__strlen>
  403e00:	aa0003f7 	mov	x23, x0
  403e04:	8b1a0000 	add	x0, x0, x26
  403e08:	8b150000 	add	x0, x0, x21
  403e0c:	94003d41 	bl	413310 <__libc_malloc>
  403e10:	aa0003f5 	mov	x21, x0
  403e14:	b40022e0 	cbz	x0, 404270 <_nl_make_l10nflist+0x538>
  403e18:	f9002fbc 	str	x28, [x29, #88]
  403e1c:	aa1603e2 	mov	x2, x22
  403e20:	aa1903e1 	mov	x1, x25
  403e24:	97fff10b 	bl	400250 <.plt+0x10>
  403e28:	b4000256 	cbz	x22, 403e70 <_nl_make_l10nflist+0x138>
  403e2c:	aa1503fb 	mov	x27, x21
  403e30:	aa1603fc 	mov	x28, x22
  403e34:	aa1b03e0 	mov	x0, x27
  403e38:	940044c2 	bl	415140 <__strlen>
  403e3c:	8b000363 	add	x3, x27, x0
  403e40:	aa2003e0 	mvn	x0, x0
  403e44:	5280075a 	mov	w26, #0x3a                  	// #58
  403e48:	ab00039c 	adds	x28, x28, x0
  403e4c:	54000120 	b.eq	403e70 <_nl_make_l10nflist+0x138>  // b.none
  403e50:	3900007a 	strb	w26, [x3]
  403e54:	9100047b 	add	x27, x3, #0x1
  403e58:	aa1b03e0 	mov	x0, x27
  403e5c:	940044b9 	bl	415140 <__strlen>
  403e60:	8b000363 	add	x3, x27, x0
  403e64:	aa2003e0 	mvn	x0, x0
  403e68:	ab00039c 	adds	x28, x28, x0
  403e6c:	54ffff21 	b.ne	403e50 <_nl_make_l10nflist+0x118>  // b.any
  403e70:	8b1602a2 	add	x2, x21, x22
  403e74:	528005e3 	mov	w3, #0x2f                  	// #47
  403e78:	aa1803e1 	mov	x1, x24
  403e7c:	aa0203e0 	mov	x0, x2
  403e80:	381ff043 	sturb	w3, [x2, #-1]
  403e84:	9400485f 	bl	416000 <__stpcpy>
  403e88:	35001573 	cbnz	w19, 404134 <_nl_make_l10nflist+0x3fc>
  403e8c:	b9406ba1 	ldr	w1, [x29, #104]
  403e90:	91000403 	add	x3, x0, #0x1
  403e94:	35001421 	cbnz	w1, 404118 <_nl_make_l10nflist+0x3e0>
  403e98:	b94067a1 	ldr	w1, [x29, #100]
  403e9c:	35001301 	cbnz	w1, 4040fc <_nl_make_l10nflist+0x3c4>
  403ea0:	b94063a1 	ldr	w1, [x29, #96]
  403ea4:	350011e1 	cbnz	w1, 4040e0 <_nl_make_l10nflist+0x3a8>
  403ea8:	528005e1 	mov	w1, #0x2f                  	// #47
  403eac:	39000001 	strb	w1, [x0]
  403eb0:	f9404fa1 	ldr	x1, [x29, #152]
  403eb4:	910006e2 	add	x2, x23, #0x1
  403eb8:	aa0303e0 	mov	x0, x3
  403ebc:	d2800017 	mov	x23, #0x0                   	// #0
  403ec0:	97fff0e4 	bl	400250 <.plt+0x10>
  403ec4:	f94047a0 	ldr	x0, [x29, #136]
  403ec8:	f940001b 	ldr	x27, [x0]
  403ecc:	f90037bb 	str	x27, [x29, #104]
  403ed0:	b40001bb 	cbz	x27, 403f04 <_nl_make_l10nflist+0x1cc>
  403ed4:	d503201f 	nop
  403ed8:	f9400362 	ldr	x2, [x27]
  403edc:	aa1503e1 	mov	x1, x21
  403ee0:	aa0203e0 	mov	x0, x2
  403ee4:	b40000c2 	cbz	x2, 403efc <_nl_make_l10nflist+0x1c4>
  403ee8:	94004376 	bl	414cc0 <strcmp>
  403eec:	7100001f 	cmp	w0, #0x0
  403ef0:	54001300 	b.eq	404150 <_nl_make_l10nflist+0x418>  // b.none
  403ef4:	5400008b 	b.lt	403f04 <_nl_make_l10nflist+0x1cc>  // b.tstop
  403ef8:	aa1b03f7 	mov	x23, x27
  403efc:	f9400f7b 	ldr	x27, [x27, #24]
  403f00:	b5fffedb 	cbnz	x27, 403ed8 <_nl_make_l10nflist+0x1a0>
  403f04:	b940a3a0 	ldr	w0, [x29, #160]
  403f08:	34001220 	cbz	w0, 40414c <_nl_make_l10nflist+0x414>
  403f0c:	12855541 	mov	w1, #0xffffd555            	// #-10923
  403f10:	528aaaa0 	mov	w0, #0x5555                	// #21845
  403f14:	0a940421 	and	w1, w1, w20, asr #1
  403f18:	0a000280 	and	w0, w20, w0
  403f1c:	0b000021 	add	w1, w1, w0
  403f20:	12819983 	mov	w3, #0xfffff333            	// #-3277
  403f24:	52866660 	mov	w0, #0x3333                	// #13107
  403f28:	0a000022 	and	w2, w1, w0
  403f2c:	0a810860 	and	w0, w3, w1, asr #2
  403f30:	5281e1e1 	mov	w1, #0xf0f                 	// #3855
  403f34:	0b020000 	add	w0, w0, w2
  403f38:	52800033 	mov	w19, #0x1                   	// #1
  403f3c:	0b801000 	add	w0, w0, w0, asr #4
  403f40:	0a010001 	and	w1, w0, w1
  403f44:	d3482c00 	ubfx	x0, x0, #8, #4
  403f48:	0b010000 	add	w0, w0, w1
  403f4c:	1ac02260 	lsl	w0, w19, w0
  403f50:	937c7c1a 	sbfiz	x26, x0, #4, #32
  403f54:	b40017d6 	cbz	x22, 40424c <_nl_make_l10nflist+0x514>
  403f58:	aa1603f3 	mov	x19, x22
  403f5c:	aa1903fc 	mov	x28, x25
  403f60:	d280001b 	mov	x27, #0x0                   	// #0
  403f64:	d503201f 	nop
  403f68:	aa1c03e0 	mov	x0, x28
  403f6c:	94004475 	bl	415140 <__strlen>
  403f70:	91000403 	add	x3, x0, #0x1
  403f74:	aa2003e0 	mvn	x0, x0
  403f78:	8b03039c 	add	x28, x28, x3
  403f7c:	9100077b 	add	x27, x27, #0x1
  403f80:	ab000273 	adds	x19, x19, x0
  403f84:	54ffff21 	b.ne	403f68 <_nl_make_l10nflist+0x230>  // b.any
  403f88:	9b1a7f60 	mul	x0, x27, x26
  403f8c:	9100a000 	add	x0, x0, #0x28
  403f90:	94003ce0 	bl	413310 <__libc_malloc>
  403f94:	aa0003fb 	mov	x27, x0
  403f98:	b4001700 	cbz	x0, 404278 <_nl_make_l10nflist+0x540>
  403f9c:	aa1603fa 	mov	x26, x22
  403fa0:	aa1903fc 	mov	x28, x25
  403fa4:	f9000015 	str	x21, [x0]
  403fa8:	aa1c03e0 	mov	x0, x28
  403fac:	94004465 	bl	415140 <__strlen>
  403fb0:	91000403 	add	x3, x0, #0x1
  403fb4:	aa2003e0 	mvn	x0, x0
  403fb8:	8b03039c 	add	x28, x28, x3
  403fbc:	91000673 	add	x19, x19, #0x1
  403fc0:	ab00035a 	adds	x26, x26, x0
  403fc4:	54ffff21 	b.ne	403fa8 <_nl_make_l10nflist+0x270>  // b.any
  403fc8:	52800020 	mov	w0, #0x1                   	// #1
  403fcc:	f100067f 	cmp	x19, #0x1
  403fd0:	540007a0 	b.eq	4040c4 <_nl_make_l10nflist+0x38c>  // b.none
  403fd4:	b9000b60 	str	w0, [x27, #8]
  403fd8:	f9000b7f 	str	xzr, [x27, #16]
  403fdc:	b40010b7 	cbz	x23, 4041f0 <_nl_make_l10nflist+0x4b8>
  403fe0:	f9400ee0 	ldr	x0, [x23, #24]
  403fe4:	f9000f60 	str	x0, [x27, #24]
  403fe8:	f9000efb 	str	x27, [x23, #24]
  403fec:	b40013f6 	cbz	x22, 404268 <_nl_make_l10nflist+0x530>
  403ff0:	aa1603f5 	mov	x21, x22
  403ff4:	aa1903f3 	mov	x19, x25
  403ff8:	d2800017 	mov	x23, #0x0                   	// #0
  403ffc:	d503201f 	nop
  404000:	aa1303e0 	mov	x0, x19
  404004:	9400444f 	bl	415140 <__strlen>
  404008:	91000401 	add	x1, x0, #0x1
  40400c:	aa2003e0 	mvn	x0, x0
  404010:	8b010273 	add	x19, x19, x1
  404014:	910006f7 	add	x23, x23, #0x1
  404018:	ab0002b5 	adds	x21, x21, x0
  40401c:	54ffff21 	b.ne	404000 <_nl_make_l10nflist+0x2c8>  // b.any
  404020:	f10006ff 	cmp	x23, #0x1
  404024:	1a9f17e9 	cset	w9, eq  // eq = none
  404028:	4b090297 	sub	w23, w20, w9
  40402c:	8b160320 	add	x0, x25, x22
  404030:	f90037a0 	str	x0, [x29, #104]
  404034:	2a3403f5 	mvn	w21, w20
  404038:	d2800013 	mov	x19, #0x0                   	// #0
  40403c:	37f800d7 	tbnz	w23, #31, 404054 <_nl_make_l10nflist+0x31c>
  404040:	6a1502ff 	tst	w23, w21
  404044:	540008e0 	b.eq	404160 <_nl_make_l10nflist+0x428>  // b.none
  404048:	510006f7 	sub	w23, w23, #0x1
  40404c:	310006ff 	cmn	w23, #0x1
  404050:	54ffff81 	b.ne	404040 <_nl_make_l10nflist+0x308>  // b.any
  404054:	f9404fa0 	ldr	x0, [x29, #152]
  404058:	f0000241 	adrp	x1, 44f000 <_nl_locale_subfreeres+0x1b8>
  40405c:	d2800162 	mov	x2, #0xb                   	// #11
  404060:	91246021 	add	x1, x1, #0x918
  404064:	9400448e 	bl	41529c <strncmp>
  404068:	35000160 	cbnz	w0, 404094 <_nl_make_l10nflist+0x35c>
  40406c:	37f80154 	tbnz	w20, #31, 404094 <_nl_make_l10nflist+0x35c>
  404070:	f0000240 	adrp	x0, 44f000 <_nl_locale_subfreeres+0x1b8>
  404074:	2a3403f5 	mvn	w21, w20
  404078:	9124a016 	add	x22, x0, #0x928
  40407c:	52800037 	mov	w23, #0x1                   	// #1
  404080:	6a15029f 	tst	w20, w21
  404084:	54000c00 	b.eq	404204 <_nl_make_l10nflist+0x4cc>  // b.none
  404088:	51000694 	sub	w20, w20, #0x1
  40408c:	3100069f 	cmn	w20, #0x1
  404090:	54ffff81 	b.ne	404080 <_nl_make_l10nflist+0x348>  // b.any
  404094:	91001273 	add	x19, x19, #0x4
  404098:	f9402fbc 	ldr	x28, [x29, #88]
  40409c:	f8337b7f 	str	xzr, [x27, x19, lsl #3]
  4040a0:	aa1b03e0 	mov	x0, x27
  4040a4:	f9403bfb 	ldr	x27, [sp, #112]
  4040a8:	a9427bfd 	ldp	x29, x30, [sp, #32]
  4040ac:	a94353f3 	ldp	x19, x20, [sp, #48]
  4040b0:	a9445bf5 	ldp	x21, x22, [sp, #64]
  4040b4:	a94563f7 	ldp	x23, x24, [sp, #80]
  4040b8:	a9466bf9 	ldp	x25, x26, [sp, #96]
  4040bc:	9102c3ff 	add	sp, sp, #0xb0
  4040c0:	d65f03c0 	ret
  4040c4:	12000680 	and	w0, w20, #0x3
  4040c8:	f9000b7f 	str	xzr, [x27, #16]
  4040cc:	71000c1f 	cmp	w0, #0x3
  4040d0:	1a9f17e0 	cset	w0, eq  // eq = none
  4040d4:	b9000b60 	str	w0, [x27, #8]
  4040d8:	b5fff857 	cbnz	x23, 403fe0 <_nl_make_l10nflist+0x2a8>
  4040dc:	14000045 	b	4041f0 <_nl_make_l10nflist+0x4b8>
  4040e0:	52800801 	mov	w1, #0x40                  	// #64
  4040e4:	39000001 	strb	w1, [x0]
  4040e8:	f9404ba1 	ldr	x1, [x29, #144]
  4040ec:	aa0303e0 	mov	x0, x3
  4040f0:	940047c4 	bl	416000 <__stpcpy>
  4040f4:	91000403 	add	x3, x0, #0x1
  4040f8:	17ffff6c 	b	403ea8 <_nl_make_l10nflist+0x170>
  4040fc:	528005c1 	mov	w1, #0x2e                  	// #46
  404100:	39000001 	strb	w1, [x0]
  404104:	f9403fa1 	ldr	x1, [x29, #120]
  404108:	aa0303e0 	mov	x0, x3
  40410c:	940047bd 	bl	416000 <__stpcpy>
  404110:	91000403 	add	x3, x0, #0x1
  404114:	17ffff63 	b	403ea0 <_nl_make_l10nflist+0x168>
  404118:	528005c1 	mov	w1, #0x2e                  	// #46
  40411c:	39000001 	strb	w1, [x0]
  404120:	f94043a1 	ldr	x1, [x29, #128]
  404124:	aa0303e0 	mov	x0, x3
  404128:	940047b6 	bl	416000 <__stpcpy>
  40412c:	91000403 	add	x3, x0, #0x1
  404130:	17ffff5a 	b	403e98 <_nl_make_l10nflist+0x160>
  404134:	52800be1 	mov	w1, #0x5f                  	// #95
  404138:	39000001 	strb	w1, [x0]
  40413c:	f9403ba1 	ldr	x1, [x29, #112]
  404140:	91000400 	add	x0, x0, #0x1
  404144:	940047af 	bl	416000 <__stpcpy>
  404148:	17ffff51 	b	403e8c <_nl_make_l10nflist+0x154>
  40414c:	d280001b 	mov	x27, #0x0                   	// #0
  404150:	aa1503e0 	mov	x0, x21
  404154:	94003e07 	bl	413970 <__free>
  404158:	f9402fbc 	ldr	x28, [x29, #88]
  40415c:	17ffffd1 	b	4040a0 <_nl_make_l10nflist+0x368>
  404160:	8b130f7c 	add	x28, x27, x19, lsl #3
  404164:	d280001a 	mov	x26, #0x0                   	// #0
  404168:	b40003fa 	cbz	x26, 4041e4 <_nl_make_l10nflist+0x4ac>
  40416c:	d503201f 	nop
  404170:	f94037a1 	ldr	x1, [x29, #104]
  404174:	aa1a03e0 	mov	x0, x26
  404178:	eb01035f 	cmp	x26, x1
  40417c:	54fff662 	b.cs	404048 <_nl_make_l10nflist+0x310>  // b.hs, b.nlast
  404180:	940043f0 	bl	415140 <__strlen>
  404184:	91000400 	add	x0, x0, #0x1
  404188:	f94037a1 	ldr	x1, [x29, #104]
  40418c:	ab00035a 	adds	x26, x26, x0
  404190:	fa411342 	ccmp	x26, x1, #0x2, ne  // ne = any
  404194:	54fff5a2 	b.cs	404048 <_nl_make_l10nflist+0x310>  // b.hs, b.nlast
  404198:	aa1a03e0 	mov	x0, x26
  40419c:	940043e9 	bl	415140 <__strlen>
  4041a0:	f9404ba1 	ldr	x1, [x29, #144]
  4041a4:	91000402 	add	x2, x0, #0x1
  4041a8:	f90003e1 	str	x1, [sp]
  4041ac:	9100239c 	add	x28, x28, #0x8
  4041b0:	a9471fa5 	ldp	x5, x7, [x29, #112]
  4041b4:	aa1803e4 	mov	x4, x24
  4041b8:	a94803a6 	ldp	x6, x0, [x29, #128]
  4041bc:	2a1703e3 	mov	w3, w23
  4041c0:	f9404fa1 	ldr	x1, [x29, #152]
  4041c4:	91000673 	add	x19, x19, #0x1
  4041c8:	f90007e1 	str	x1, [sp, #8]
  4041cc:	52800021 	mov	w1, #0x1                   	// #1
  4041d0:	b90013e1 	str	w1, [sp, #16]
  4041d4:	aa1a03e1 	mov	x1, x26
  4041d8:	97fffed8 	bl	403d38 <_nl_make_l10nflist>
  4041dc:	f9000f80 	str	x0, [x28, #24]
  4041e0:	b5fffc9a 	cbnz	x26, 404170 <_nl_make_l10nflist+0x438>
  4041e4:	aa1903fa 	mov	x26, x25
  4041e8:	b5fffd96 	cbnz	x22, 404198 <_nl_make_l10nflist+0x460>
  4041ec:	17ffff97 	b	404048 <_nl_make_l10nflist+0x310>
  4041f0:	f94037a0 	ldr	x0, [x29, #104]
  4041f4:	f9000f60 	str	x0, [x27, #24]
  4041f8:	f94047a0 	ldr	x0, [x29, #136]
  4041fc:	f900001b 	str	x27, [x0]
  404200:	17ffff7b 	b	403fec <_nl_make_l10nflist+0x2b4>
  404204:	f9404ba0 	ldr	x0, [x29, #144]
  404208:	aa1603e1 	mov	x1, x22
  40420c:	f90003e0 	str	x0, [sp]
  404210:	2a1403e3 	mov	w3, w20
  404214:	f9404fa0 	ldr	x0, [x29, #152]
  404218:	aa1803e4 	mov	x4, x24
  40421c:	f90007e0 	str	x0, [sp, #8]
  404220:	d2800362 	mov	x2, #0x1b                  	// #27
  404224:	a9471fa5 	ldp	x5, x7, [x29, #112]
  404228:	b90013f7 	str	w23, [sp, #16]
  40422c:	f94043a6 	ldr	x6, [x29, #128]
  404230:	91000679 	add	x25, x19, #0x1
  404234:	f94047a0 	ldr	x0, [x29, #136]
  404238:	97fffec0 	bl	403d38 <_nl_make_l10nflist>
  40423c:	91001261 	add	x1, x19, #0x4
  404240:	aa1903f3 	mov	x19, x25
  404244:	f8217b60 	str	x0, [x27, x1, lsl #3]
  404248:	17ffff90 	b	404088 <_nl_make_l10nflist+0x350>
  40424c:	d2800500 	mov	x0, #0x28                  	// #40
  404250:	94003c30 	bl	413310 <__libc_malloc>
  404254:	aa0003fb 	mov	x27, x0
  404258:	b4000100 	cbz	x0, 404278 <_nl_make_l10nflist+0x540>
  40425c:	2a1303e0 	mov	w0, w19
  404260:	f9000375 	str	x21, [x27]
  404264:	17ffff5c 	b	403fd4 <_nl_make_l10nflist+0x29c>
  404268:	2a1403f7 	mov	w23, w20
  40426c:	17ffff70 	b	40402c <_nl_make_l10nflist+0x2f4>
  404270:	d280001b 	mov	x27, #0x0                   	// #0
  404274:	17ffff8b 	b	4040a0 <_nl_make_l10nflist+0x368>
  404278:	aa1503e0 	mov	x0, x21
  40427c:	d280001b 	mov	x27, #0x0                   	// #0
  404280:	94003dbc 	bl	413970 <__free>
  404284:	f9402fbc 	ldr	x28, [x29, #88]
  404288:	17ffff86 	b	4040a0 <_nl_make_l10nflist+0x368>
  40428c:	d503201f 	nop

0000000000404290 <_nl_normalize_codeset>:
  404290:	a9bd7bfd 	stp	x29, x30, [sp, #-48]!
  404294:	910003fd 	mov	x29, sp
  404298:	b40008a1 	cbz	x1, 4043ac <_nl_normalize_codeset+0x11c>
  40429c:	a9025bb5 	stp	x21, x22, [x29, #32]
  4042a0:	f00002d6 	adrp	x22, 45f000 <translit_from_idx+0x1228>
  4042a4:	910ee2c2 	add	x2, x22, #0x3b8
  4042a8:	a90153b3 	stp	x19, x20, [x29, #16]
  4042ac:	aa0003f5 	mov	x21, x0
  4042b0:	aa0103f4 	mov	x20, x1
  4042b4:	aa0003e3 	mov	x3, x0
  4042b8:	8b000021 	add	x1, x1, x0
  4042bc:	f9403453 	ldr	x19, [x2, #104]
  4042c0:	52800025 	mov	w5, #0x1                   	// #1
  4042c4:	d2800000 	mov	x0, #0x0                   	// #0
  4042c8:	39400062 	ldrb	w2, [x3]
  4042cc:	91000463 	add	x3, x3, #0x1
  4042d0:	5100c044 	sub	w4, w2, #0x30
  4042d4:	d37f1c42 	ubfiz	x2, x2, #1, #8
  4042d8:	78626a62 	ldrh	w2, [x19, x2]
  4042dc:	36180082 	tbz	w2, #3, 4042ec <_nl_normalize_codeset+0x5c>
  4042e0:	7100289f 	cmp	w4, #0xa
  4042e4:	91000400 	add	x0, x0, #0x1
  4042e8:	1a9f30a5 	csel	w5, w5, wzr, cc  // cc = lo, ul, last
  4042ec:	eb03003f 	cmp	x1, x3
  4042f0:	54fffec1 	b.ne	4042c8 <_nl_normalize_codeset+0x38>  // b.any
  4042f4:	350003e5 	cbnz	w5, 404370 <_nl_normalize_codeset+0xe0>
  4042f8:	91000400 	add	x0, x0, #0x1
  4042fc:	94003c05 	bl	413310 <__libc_malloc>
  404300:	aa0003e4 	mov	x4, x0
  404304:	b40003c0 	cbz	x0, 40437c <_nl_normalize_codeset+0xec>
  404308:	910ee2d6 	add	x22, x22, #0x3b8
  40430c:	d2800002 	mov	x2, #0x0                   	// #0
  404310:	f9403ac7 	ldr	x7, [x22, #112]
  404314:	14000007 	b	404330 <_nl_normalize_codeset+0xa0>
  404318:	91000484 	add	x4, x4, #0x1
  40431c:	b86578e1 	ldr	w1, [x7, x5, lsl #2]
  404320:	381ff081 	sturb	w1, [x4, #-1]
  404324:	91000442 	add	x2, x2, #0x1
  404328:	eb02029f 	cmp	x20, x2
  40432c:	54000189 	b.ls	40435c <_nl_normalize_codeset+0xcc>  // b.plast
  404330:	38626aa5 	ldrb	w5, [x21, x2]
  404334:	5100c0a1 	sub	w1, w5, #0x30
  404338:	78657a66 	ldrh	w6, [x19, x5, lsl #1]
  40433c:	3757fee6 	tbnz	w6, #10, 404318 <_nl_normalize_codeset+0x88>
  404340:	7100243f 	cmp	w1, #0x9
  404344:	54ffff08 	b.hi	404324 <_nl_normalize_codeset+0x94>  // b.pmore
  404348:	39000085 	strb	w5, [x4]
  40434c:	91000442 	add	x2, x2, #0x1
  404350:	91000484 	add	x4, x4, #0x1
  404354:	eb02029f 	cmp	x20, x2
  404358:	54fffec8 	b.hi	404330 <_nl_normalize_codeset+0xa0>  // b.pmore
  40435c:	a94153b3 	ldp	x19, x20, [x29, #16]
  404360:	a9425bb5 	ldp	x21, x22, [x29, #32]
  404364:	3900009f 	strb	wzr, [x4]
  404368:	a8c37bfd 	ldp	x29, x30, [sp], #48
  40436c:	d65f03c0 	ret
  404370:	91001000 	add	x0, x0, #0x4
  404374:	94003be7 	bl	413310 <__libc_malloc>
  404378:	b50000c0 	cbnz	x0, 404390 <_nl_normalize_codeset+0x100>
  40437c:	a94153b3 	ldp	x19, x20, [x29, #16]
  404380:	a9425bb5 	ldp	x21, x22, [x29, #32]
  404384:	d2800000 	mov	x0, #0x0                   	// #0
  404388:	a8c37bfd 	ldp	x29, x30, [sp], #48
  40438c:	d65f03c0 	ret
  404390:	aa0003e4 	mov	x4, x0
  404394:	910ee2c1 	add	x1, x22, #0x3b8
  404398:	528e6d22 	mov	w2, #0x7369                	// #29545
  40439c:	72a00de2 	movk	w2, #0x6f, lsl #16
  4043a0:	f9403433 	ldr	x19, [x1, #104]
  4043a4:	b8003482 	str	w2, [x4], #3
  4043a8:	17ffffd8 	b	404308 <_nl_normalize_codeset+0x78>
  4043ac:	d2800080 	mov	x0, #0x4                   	// #4
  4043b0:	94003bd8 	bl	413310 <__libc_malloc>
  4043b4:	b4fffe80 	cbz	x0, 404384 <_nl_normalize_codeset+0xf4>
  4043b8:	aa0003e4 	mov	x4, x0
  4043bc:	528e6d21 	mov	w1, #0x7369                	// #29545
  4043c0:	72a00de1 	movk	w1, #0x6f, lsl #16
  4043c4:	b8003481 	str	w1, [x4], #3
  4043c8:	17ffffe7 	b	404364 <_nl_normalize_codeset+0xd4>
  4043cc:	00000000 	.inst	0x00000000 ; undefined

00000000004043d0 <_nl_explode_name>:
  4043d0:	a9ba7bfd 	stp	x29, x30, [sp, #-96]!
  4043d4:	910003fd 	mov	x29, sp
  4043d8:	a90153f3 	stp	x19, x20, [sp, #16]
  4043dc:	a9025bf5 	stp	x21, x22, [sp, #32]
  4043e0:	aa0003f5 	mov	x21, x0
  4043e4:	a90363f7 	stp	x23, x24, [sp, #48]
  4043e8:	aa0403f6 	mov	x22, x4
  4043ec:	f900005f 	str	xzr, [x2]
  4043f0:	aa0203f8 	mov	x24, x2
  4043f4:	f900007f 	str	xzr, [x3]
  4043f8:	aa0303f7 	mov	x23, x3
  4043fc:	f900009f 	str	xzr, [x4]
  404400:	f90000bf 	str	xzr, [x5]
  404404:	f9000020 	str	x0, [x1]
  404408:	39400000 	ldrb	w0, [x0]
  40440c:	12197801 	and	w1, w0, #0xffffffbf
  404410:	71017c1f 	cmp	w0, #0x5f
  404414:	7a401824 	ccmp	w1, #0x0, #0x4, ne  // ne = any
  404418:	540005e0 	b.eq	4044d4 <_nl_explode_name+0x104>  // b.none
  40441c:	7100b81f 	cmp	w0, #0x2e
  404420:	540005a0 	b.eq	4044d4 <_nl_explode_name+0x104>  // b.none
  404424:	aa1503e0 	mov	x0, x21
  404428:	52800806 	mov	w6, #0x40                  	// #64
  40442c:	d503201f 	nop
  404430:	39400401 	ldrb	w1, [x0, #1]
  404434:	91000413 	add	x19, x0, #0x1
  404438:	71017c3f 	cmp	w1, #0x5f
  40443c:	7a401824 	ccmp	w1, #0x0, #0x4, ne  // ne = any
  404440:	54000560 	b.eq	4044ec <_nl_explode_name+0x11c>  // b.none
  404444:	7100b83f 	cmp	w1, #0x2e
  404448:	aa1303e0 	mov	x0, x19
  40444c:	7a461024 	ccmp	w1, w6, #0x4, ne  // ne = any
  404450:	54ffff01 	b.ne	404430 <_nl_explode_name+0x60>  // b.any
  404454:	eb1302bf 	cmp	x21, x19
  404458:	540003e0 	b.eq	4044d4 <_nl_explode_name+0x104>  // b.none
  40445c:	52800014 	mov	w20, #0x0                   	// #0
  404460:	7100b83f 	cmp	w1, #0x2e
  404464:	54000720 	b.eq	404548 <_nl_explode_name+0x178>  // b.none
  404468:	7101003f 	cmp	w1, #0x40
  40446c:	54000101 	b.ne	40448c <_nl_explode_name+0xbc>  // b.any
  404470:	aa1303e0 	mov	x0, x19
  404474:	321d0281 	orr	w1, w20, #0x8
  404478:	3800141f 	strb	wzr, [x0], #1
  40447c:	f9000300 	str	x0, [x24]
  404480:	39400660 	ldrb	w0, [x19, #1]
  404484:	7100001f 	cmp	w0, #0x0
  404488:	1a941034 	csel	w20, w1, w20, ne  // ne = any
  40448c:	f94002e0 	ldr	x0, [x23]
  404490:	b40000a0 	cbz	x0, 4044a4 <_nl_explode_name+0xd4>
  404494:	39400001 	ldrb	w1, [x0]
  404498:	121d7a80 	and	w0, w20, #0xfffffffb
  40449c:	7100003f 	cmp	w1, #0x0
  4044a0:	1a940014 	csel	w20, w0, w20, eq  // eq = none
  4044a4:	f94002c0 	ldr	x0, [x22]
  4044a8:	b40000a0 	cbz	x0, 4044bc <_nl_explode_name+0xec>
  4044ac:	39400001 	ldrb	w1, [x0]
  4044b0:	121e7a80 	and	w0, w20, #0xfffffffd
  4044b4:	7100003f 	cmp	w1, #0x0
  4044b8:	1a940014 	csel	w20, w0, w20, eq  // eq = none
  4044bc:	2a1403e0 	mov	w0, w20
  4044c0:	a94153f3 	ldp	x19, x20, [sp, #16]
  4044c4:	a9425bf5 	ldp	x21, x22, [sp, #32]
  4044c8:	a94363f7 	ldp	x23, x24, [sp, #48]
  4044cc:	a8c67bfd 	ldp	x29, x30, [sp], #96
  4044d0:	d65f03c0 	ret
  4044d4:	aa1503e0 	mov	x0, x21
  4044d8:	52800014 	mov	w20, #0x0                   	// #0
  4044dc:	94004319 	bl	415140 <__strlen>
  4044e0:	8b0002b3 	add	x19, x21, x0
  4044e4:	38606aa1 	ldrb	w1, [x21, x0]
  4044e8:	17ffffe0 	b	404468 <_nl_explode_name+0x98>
  4044ec:	eb1302bf 	cmp	x21, x19
  4044f0:	54ffff20 	b.eq	4044d4 <_nl_explode_name+0x104>  // b.none
  4044f4:	71017c3f 	cmp	w1, #0x5f
  4044f8:	54fffb21 	b.ne	40445c <_nl_explode_name+0x8c>  // b.any
  4044fc:	3900027f 	strb	wzr, [x19]
  404500:	91000800 	add	x0, x0, #0x2
  404504:	f90002e0 	str	x0, [x23]
  404508:	39400661 	ldrb	w1, [x19, #1]
  40450c:	aa0003f3 	mov	x19, x0
  404510:	12197822 	and	w2, w1, #0xffffffbf
  404514:	7100b83f 	cmp	w1, #0x2e
  404518:	12001c42 	and	w2, w2, #0xff
  40451c:	7a401844 	ccmp	w2, #0x0, #0x4, ne  // ne = any
  404520:	540000e0 	b.eq	40453c <_nl_explode_name+0x16c>  // b.none
  404524:	d503201f 	nop
  404528:	38401e61 	ldrb	w1, [x19, #1]!
  40452c:	12197820 	and	w0, w1, #0xffffffbf
  404530:	7100b83f 	cmp	w1, #0x2e
  404534:	7a401804 	ccmp	w0, #0x0, #0x4, ne  // ne = any
  404538:	54ffff81 	b.ne	404528 <_nl_explode_name+0x158>  // b.any
  40453c:	52800094 	mov	w20, #0x4                   	// #4
  404540:	7100b83f 	cmp	w1, #0x2e
  404544:	54fff921 	b.ne	404468 <_nl_explode_name+0x98>  // b.any
  404548:	aa1303e0 	mov	x0, x19
  40454c:	f90023b9 	str	x25, [x29, #64]
  404550:	528017e2 	mov	w2, #0xbf                  	// #191
  404554:	321f0299 	orr	w25, w20, #0x2
  404558:	3800141f 	strb	wzr, [x0], #1
  40455c:	f90002c0 	str	x0, [x22]
  404560:	39400661 	ldrb	w1, [x19, #1]
  404564:	6a02003f 	tst	w1, w2
  404568:	54000480 	b.eq	4045f8 <_nl_explode_name+0x228>  // b.none
  40456c:	aa0003f5 	mov	x21, x0
  404570:	14000002 	b	404578 <_nl_explode_name+0x1a8>
  404574:	aa1303f5 	mov	x21, x19
  404578:	394006a4 	ldrb	w4, [x21, #1]
  40457c:	528017e3 	mov	w3, #0xbf                  	// #191
  404580:	910006b3 	add	x19, x21, #0x1
  404584:	6a03009f 	tst	w4, w3
  404588:	54ffff61 	b.ne	404574 <_nl_explode_name+0x1a4>  // b.any
  40458c:	f9002fa5 	str	x5, [x29, #88]
  404590:	eb13001f 	cmp	x0, x19
  404594:	54000200 	b.eq	4045d4 <_nl_explode_name+0x204>  // b.none
  404598:	f90027ba 	str	x26, [x29, #72]
  40459c:	cb000261 	sub	x1, x19, x0
  4045a0:	97ffff3c 	bl	404290 <_nl_normalize_codeset>
  4045a4:	aa0003fa 	mov	x26, x0
  4045a8:	f9402fa5 	ldr	x5, [x29, #88]
  4045ac:	f90000a0 	str	x0, [x5]
  4045b0:	b40002c0 	cbz	x0, 404608 <_nl_explode_name+0x238>
  4045b4:	aa0003e1 	mov	x1, x0
  4045b8:	f94002c0 	ldr	x0, [x22]
  4045bc:	940041c1 	bl	414cc0 <strcmp>
  4045c0:	34000100 	cbz	w0, 4045e0 <_nl_explode_name+0x210>
  4045c4:	32000694 	orr	w20, w20, #0x3
  4045c8:	394006a1 	ldrb	w1, [x21, #1]
  4045cc:	a9446bb9 	ldp	x25, x26, [x29, #64]
  4045d0:	17ffffa6 	b	404468 <_nl_explode_name+0x98>
  4045d4:	2a1903f4 	mov	w20, w25
  4045d8:	f94023b9 	ldr	x25, [x29, #64]
  4045dc:	17ffffa3 	b	404468 <_nl_explode_name+0x98>
  4045e0:	aa1a03e0 	mov	x0, x26
  4045e4:	94003ce3 	bl	413970 <__free>
  4045e8:	2a1903f4 	mov	w20, w25
  4045ec:	394006a1 	ldrb	w1, [x21, #1]
  4045f0:	a9446bb9 	ldp	x25, x26, [x29, #64]
  4045f4:	17ffff9d 	b	404468 <_nl_explode_name+0x98>
  4045f8:	2a1903f4 	mov	w20, w25
  4045fc:	aa0003f3 	mov	x19, x0
  404600:	f94023b9 	ldr	x25, [x29, #64]
  404604:	17ffff99 	b	404468 <_nl_explode_name+0x98>
  404608:	12800014 	mov	w20, #0xffffffff            	// #-1
  40460c:	a9446bb9 	ldp	x25, x26, [x29, #64]
  404610:	17ffffab 	b	4044bc <_nl_explode_name+0xec>
  404614:	00000000 	.inst	0x00000000 ; undefined

0000000000404618 <__gettext_free_exp>:
  404618:	b4000340 	cbz	x0, 404680 <__gettext_free_exp+0x68>
  40461c:	a9be7bfd 	stp	x29, x30, [sp, #-32]!
  404620:	910003fd 	mov	x29, sp
  404624:	f9000bf3 	str	x19, [sp, #16]
  404628:	aa0003f3 	mov	x19, x0
  40462c:	b9400000 	ldr	w0, [x0]
  404630:	7100081f 	cmp	w0, #0x2
  404634:	54000160 	b.eq	404660 <__gettext_free_exp+0x48>  // b.none
  404638:	71000c1f 	cmp	w0, #0x3
  40463c:	540000e0 	b.eq	404658 <__gettext_free_exp+0x40>  // b.none
  404640:	7100041f 	cmp	w0, #0x1
  404644:	54000120 	b.eq	404668 <__gettext_free_exp+0x50>  // b.none
  404648:	aa1303e0 	mov	x0, x19
  40464c:	f9400bf3 	ldr	x19, [sp, #16]
  404650:	a8c27bfd 	ldp	x29, x30, [sp], #32
  404654:	14003cc7 	b	413970 <__free>
  404658:	f9400e60 	ldr	x0, [x19, #24]
  40465c:	97ffffef 	bl	404618 <__gettext_free_exp>
  404660:	f9400a60 	ldr	x0, [x19, #16]
  404664:	97ffffed 	bl	404618 <__gettext_free_exp>
  404668:	f9400660 	ldr	x0, [x19, #8]
  40466c:	97ffffeb 	bl	404618 <__gettext_free_exp>
  404670:	aa1303e0 	mov	x0, x19
  404674:	f9400bf3 	ldr	x19, [sp, #16]
  404678:	a8c27bfd 	ldp	x29, x30, [sp], #32
  40467c:	14003cbd 	b	413970 <__free>
  404680:	d65f03c0 	ret
  404684:	d503201f 	nop

0000000000404688 <new_exp>:
  404688:	a9bc7bfd 	stp	x29, x30, [sp, #-64]!
  40468c:	910003fd 	mov	x29, sp
  404690:	f9001ff8 	str	x24, [sp, #56]
  404694:	2a0103f8 	mov	w24, w1
  404698:	34000740 	cbz	w0, 404780 <new_exp+0xf8>
  40469c:	a9025bb5 	stp	x21, x22, [x29, #32]
  4046a0:	aa0203f5 	mov	x21, x2
  4046a4:	51000402 	sub	w2, w0, #0x1
  4046a8:	a90153b3 	stp	x19, x20, [x29, #16]
  4046ac:	93407c53 	sxtw	x19, w2
  4046b0:	d37df276 	lsl	x22, x19, #3
  4046b4:	f8737ab4 	ldr	x20, [x21, x19, lsl #3]
  4046b8:	b40004b4 	cbz	x20, 40474c <new_exp+0xc4>
  4046bc:	cb224ec3 	sub	x3, x22, w2, uxtw #3
  4046c0:	f9001bb7 	str	x23, [x29, #48]
  4046c4:	d10022a2 	sub	x2, x21, #0x8
  4046c8:	2a0003f7 	mov	w23, w0
  4046cc:	d10022c0 	sub	x0, x22, #0x8
  4046d0:	8b020062 	add	x2, x3, x2
  4046d4:	8b0002a0 	add	x0, x21, x0
  4046d8:	14000003 	b	4046e4 <new_exp+0x5c>
  4046dc:	f85f8403 	ldr	x3, [x0], #-8
  4046e0:	b40004c3 	cbz	x3, 404778 <new_exp+0xf0>
  4046e4:	eb02001f 	cmp	x0, x2
  4046e8:	54ffffa1 	b.ne	4046dc <new_exp+0x54>  // b.any
  4046ec:	d2800400 	mov	x0, #0x20                  	// #32
  4046f0:	94003b08 	bl	413310 <__libc_malloc>
  4046f4:	b4000420 	cbz	x0, 404778 <new_exp+0xf0>
  4046f8:	8b160001 	add	x1, x0, x22
  4046fc:	29006017 	stp	w23, w24, [x0]
  404700:	d1000673 	sub	x19, x19, #0x1
  404704:	3100067f 	cmn	w19, #0x1
  404708:	f9000434 	str	x20, [x1, #8]
  40470c:	d37df276 	lsl	x22, x19, #3
  404710:	54000100 	b.eq	404730 <new_exp+0xa8>  // b.none
  404714:	8b160001 	add	x1, x0, x22
  404718:	f8737ab4 	ldr	x20, [x21, x19, lsl #3]
  40471c:	d1000673 	sub	x19, x19, #0x1
  404720:	3100067f 	cmn	w19, #0x1
  404724:	f9000434 	str	x20, [x1, #8]
  404728:	d37df276 	lsl	x22, x19, #3
  40472c:	54ffff41 	b.ne	404714 <new_exp+0x8c>  // b.any
  404730:	a94153b3 	ldp	x19, x20, [x29, #16]
  404734:	a9425bb5 	ldp	x21, x22, [x29, #32]
  404738:	f9401bb7 	ldr	x23, [x29, #48]
  40473c:	f9401ff8 	ldr	x24, [sp, #56]
  404740:	a8c47bfd 	ldp	x29, x30, [sp], #64
  404744:	d65f03c0 	ret
  404748:	f8737ab4 	ldr	x20, [x21, x19, lsl #3]
  40474c:	aa1403e0 	mov	x0, x20
  404750:	d1000673 	sub	x19, x19, #0x1
  404754:	97ffffb1 	bl	404618 <__gettext_free_exp>
  404758:	3100067f 	cmn	w19, #0x1
  40475c:	54ffff61 	b.ne	404748 <new_exp+0xc0>  // b.any
  404760:	a94153b3 	ldp	x19, x20, [x29, #16]
  404764:	a9425bb5 	ldp	x21, x22, [x29, #32]
  404768:	d2800000 	mov	x0, #0x0                   	// #0
  40476c:	f9401ff8 	ldr	x24, [sp, #56]
  404770:	a8c47bfd 	ldp	x29, x30, [sp], #64
  404774:	d65f03c0 	ret
  404778:	f9401bb7 	ldr	x23, [x29, #48]
  40477c:	17fffff4 	b	40474c <new_exp+0xc4>
  404780:	d2800400 	mov	x0, #0x20                  	// #32
  404784:	94003ae3 	bl	413310 <__libc_malloc>
  404788:	b4ffff00 	cbz	x0, 404768 <new_exp+0xe0>
  40478c:	2900601f 	stp	wzr, w24, [x0]
  404790:	17fffff7 	b	40476c <new_exp+0xe4>
  404794:	d503201f 	nop

0000000000404798 <__gettextparse>:
  404798:	d121c3ff 	sub	sp, sp, #0x870
  40479c:	d00003c1 	adrp	x1, 47e000 <__FRAME_END__+0x105ac>
  4047a0:	f0000244 	adrp	x4, 44f000 <_nl_locale_subfreeres+0x1b8>
  4047a4:	9128e021 	add	x1, x1, #0xa38
  4047a8:	52800003 	mov	w3, #0x0                   	// #0
  4047ac:	a9007bfd 	stp	x29, x30, [sp]
  4047b0:	910003fd 	mov	x29, sp
  4047b4:	a90153f3 	stp	x19, x20, [sp, #16]
  4047b8:	9108a3b4 	add	x20, x29, #0x228
  4047bc:	a90363f7 	stp	x23, x24, [sp, #48]
  4047c0:	910263b3 	add	x19, x29, #0x98
  4047c4:	91272098 	add	x24, x4, #0x9c8
  4047c8:	a9025bf5 	stp	x21, x22, [sp, #32]
  4047cc:	a9046bf9 	stp	x25, x26, [sp, #64]
  4047d0:	91008316 	add	x22, x24, #0x20
  4047d4:	a90573fb 	stp	x27, x28, [sp, #80]
  4047d8:	aa1403fa 	mov	x26, x20
  4047dc:	f90037a0 	str	x0, [x29, #104]
  4047e0:	aa1303fb 	mov	x27, x19
  4047e4:	f9400020 	ldr	x0, [x1]
  4047e8:	f90437a0 	str	x0, [x29, #2152]
  4047ec:	d2800000 	mov	x0, #0x0                   	// #0
  4047f0:	b90077bf 	str	wzr, [x29, #116]
  4047f4:	91016300 	add	x0, x24, #0x58
  4047f8:	790133bf 	strh	wzr, [x29, #152]
  4047fc:	12800035 	mov	w21, #0xfffffffe            	// #-2
  404800:	d2801917 	mov	x23, #0xc8                  	// #200
  404804:	f9003fa0 	str	x0, [x29, #120]
  404808:	38e3cb00 	ldrsb	w0, [x24, w3, sxtw]
  40480c:	93407c61 	sxtw	x1, w3
  404810:	3100281f 	cmn	w0, #0xa
  404814:	540001a0 	b.eq	404848 <__gettextparse+0xb0>  // b.none
  404818:	31000abf 	cmn	w21, #0x2
  40481c:	54001a00 	b.eq	404b5c <__gettextparse+0x3c4>  // b.none
  404820:	710002bf 	cmp	w21, #0x0
  404824:	54000f0d 	b.le	404a04 <__gettextparse+0x26c>
  404828:	91038302 	add	x2, x24, #0xe0
  40482c:	3875c842 	ldrb	w2, [x2, w21, sxtw]
  404830:	0b020000 	add	w0, w0, w2
  404834:	7100d81f 	cmp	w0, #0x36
  404838:	54000088 	b.hi	404848 <__gettextparse+0xb0>  // b.pmore
  40483c:	38e0cac3 	ldrsb	w3, [x22, w0, sxtw]
  404840:	6b02007f 	cmp	w3, w2
  404844:	54000c60 	b.eq	4049d0 <__gettextparse+0x238>  // b.none
  404848:	91024300 	add	x0, x24, #0x90
  40484c:	38616803 	ldrb	w3, [x0, x1]
  404850:	340002e3 	cbz	w3, 4048ac <__gettextparse+0x114>
  404854:	9102c300 	add	x0, x24, #0xb0
  404858:	52800027 	mov	w7, #0x1                   	// #1
  40485c:	71001c7f 	cmp	w3, #0x7
  404860:	3863c801 	ldrb	w1, [x0, w3, sxtw]
  404864:	4b0100e0 	sub	w0, w7, w1
  404868:	f860da80 	ldr	x0, [x20, w0, sxtw #3]
  40486c:	54000da0 	b.eq	404a20 <__gettextparse+0x288>  // b.none
  404870:	54000869 	b.ls	40497c <__gettextparse+0x1e4>  // b.plast
  404874:	7100287f 	cmp	w3, #0xa
  404878:	54001f80 	b.eq	404c68 <__gettextparse+0x4d0>  // b.none
  40487c:	54000ca9 	b.ls	404a10 <__gettextparse+0x278>  // b.plast
  404880:	7100307f 	cmp	w3, #0xc
  404884:	54001b20 	b.eq	404be8 <__gettextparse+0x450>  // b.none
  404888:	540020a3 	b.cc	404c9c <__gettextparse+0x504>  // b.lo, b.ul, b.last
  40488c:	7100347f 	cmp	w3, #0xd
  404890:	54001941 	b.ne	404bb8 <__gettextparse+0x420>  // b.any
  404894:	d1006299 	sub	x25, x20, #0x18
  404898:	d1001a73 	sub	x19, x19, #0x6
  40489c:	12800003 	mov	w3, #0xffffffff            	// #-1
  4048a0:	52800047 	mov	w7, #0x2                   	// #2
  4048a4:	f85f8280 	ldur	x0, [x20, #-8]
  4048a8:	14000069 	b	404a4c <__gettextparse+0x2b4>
  4048ac:	b94077a0 	ldr	w0, [x29, #116]
  4048b0:	71000c1f 	cmp	w0, #0x3
  4048b4:	54000161 	b.ne	4048e0 <__gettextparse+0x148>  // b.any
  4048b8:	710002bf 	cmp	w21, #0x0
  4048bc:	54001b4d 	b.le	404c24 <__gettextparse+0x48c>
  4048c0:	38e16b00 	ldrsb	w0, [x24, x1]
  4048c4:	12800035 	mov	w21, #0xfffffffe            	// #-2
  4048c8:	3100281f 	cmn	w0, #0xa
  4048cc:	54000101 	b.ne	4048ec <__gettextparse+0x154>  // b.any
  4048d0:	eb1b027f 	cmp	x19, x27
  4048d4:	540002a0 	b.eq	404928 <__gettextparse+0x190>  // b.none
  4048d8:	789fee61 	ldrsh	x1, [x19, #-2]!
  4048dc:	d1002294 	sub	x20, x20, #0x8
  4048e0:	38e16b00 	ldrsb	w0, [x24, x1]
  4048e4:	3100281f 	cmn	w0, #0xa
  4048e8:	54ffff40 	b.eq	4048d0 <__gettextparse+0x138>  // b.none
  4048ec:	11000400 	add	w0, w0, #0x1
  4048f0:	7100d81f 	cmp	w0, #0x36
  4048f4:	54fffee8 	b.hi	4048d0 <__gettextparse+0x138>  // b.pmore
  4048f8:	38e0cac1 	ldrsb	w1, [x22, w0, sxtw]
  4048fc:	7100043f 	cmp	w1, #0x1
  404900:	54fffe81 	b.ne	4048d0 <__gettextparse+0x138>  // b.any
  404904:	f9403fa1 	ldr	x1, [x29, #120]
  404908:	3860c823 	ldrb	w3, [x1, w0, sxtw]
  40490c:	34fffe23 	cbz	w3, 4048d0 <__gettextparse+0x138>
  404910:	f94033a0 	ldr	x0, [x29, #96]
  404914:	91002294 	add	x20, x20, #0x8
  404918:	f9000280 	str	x0, [x20]
  40491c:	52800060 	mov	w0, #0x3                   	// #3
  404920:	b90077a0 	str	w0, [x29, #116]
  404924:	14000055 	b	404a78 <__gettextparse+0x2e0>
  404928:	52800034 	mov	w20, #0x1                   	// #1
  40492c:	910263a0 	add	x0, x29, #0x98
  404930:	eb00027f 	cmp	x19, x0
  404934:	54000060 	b.eq	404940 <__gettextparse+0x1a8>  // b.none
  404938:	aa1303e0 	mov	x0, x19
  40493c:	94003c0d 	bl	413970 <__free>
  404940:	d00003c0 	adrp	x0, 47e000 <__FRAME_END__+0x105ac>
  404944:	9128e018 	add	x24, x0, #0xa38
  404948:	f94437a2 	ldr	x2, [x29, #2152]
  40494c:	f9400301 	ldr	x1, [x24]
  404950:	ca010041 	eor	x1, x2, x1
  404954:	2a1403e0 	mov	w0, w20
  404958:	b5002c01 	cbnz	x1, 404ed8 <__gettextparse+0x740>
  40495c:	a9407bfd 	ldp	x29, x30, [sp]
  404960:	a94153f3 	ldp	x19, x20, [sp, #16]
  404964:	a9425bf5 	ldp	x21, x22, [sp, #32]
  404968:	a94363f7 	ldp	x23, x24, [sp, #48]
  40496c:	a9446bf9 	ldp	x25, x26, [sp, #64]
  404970:	a94573fb 	ldp	x27, x28, [sp, #80]
  404974:	9121c3ff 	add	sp, sp, #0x870
  404978:	d65f03c0 	ret
  40497c:	7100107f 	cmp	w3, #0x4
  404980:	54001a00 	b.eq	404cc0 <__gettextparse+0x528>  // b.none
  404984:	54001128 	b.hi	404ba8 <__gettextparse+0x410>  // b.pmore
  404988:	7100087f 	cmp	w3, #0x2
  40498c:	540015e0 	b.eq	404c48 <__gettextparse+0x4b0>  // b.none
  404990:	71000c7f 	cmp	w3, #0x3
  404994:	54001121 	b.ne	404bb8 <__gettextparse+0x420>  // b.any
  404998:	f85f0281 	ldur	x1, [x20, #-16]
  40499c:	d100a299 	sub	x25, x20, #0x28
  4049a0:	f85e0282 	ldur	x2, [x20, #-32]
  4049a4:	d1002a73 	sub	x19, x19, #0xa
  4049a8:	f9400280 	ldr	x0, [x20]
  4049ac:	a90807a2 	stp	x2, x1, [x29, #128]
  4049b0:	910203a2 	add	x2, x29, #0x80
  4049b4:	f9004ba0 	str	x0, [x29, #144]
  4049b8:	52800201 	mov	w1, #0x10                  	// #16
  4049bc:	2a0303e0 	mov	w0, w3
  4049c0:	97ffff32 	bl	404688 <new_exp>
  4049c4:	12800003 	mov	w3, #0xffffffff            	// #-1
  4049c8:	52800047 	mov	w7, #0x2                   	// #2
  4049cc:	14000020 	b	404a4c <__gettextparse+0x2b4>
  4049d0:	f9403fa1 	ldr	x1, [x29, #120]
  4049d4:	3860c823 	ldrb	w3, [x1, w0, sxtw]
  4049d8:	34001003 	cbz	w3, 404bd8 <__gettextparse+0x440>
  4049dc:	b94077a1 	ldr	w1, [x29, #116]
  4049e0:	12800035 	mov	w21, #0xfffffffe            	// #-2
  4049e4:	f94033a0 	ldr	x0, [x29, #96]
  4049e8:	91002294 	add	x20, x20, #0x8
  4049ec:	7100003f 	cmp	w1, #0x0
  4049f0:	f9000280 	str	x0, [x20]
  4049f4:	1a9f07e0 	cset	w0, ne  // ne = any
  4049f8:	4b000020 	sub	w0, w1, w0
  4049fc:	b90077a0 	str	w0, [x29, #116]
  404a00:	1400001e 	b	404a78 <__gettextparse+0x2e0>
  404a04:	52800002 	mov	w2, #0x0                   	// #0
  404a08:	52800015 	mov	w21, #0x0                   	// #0
  404a0c:	17ffff8a 	b	404834 <__gettextparse+0x9c>
  404a10:	7100207f 	cmp	w3, #0x8
  404a14:	54000060 	b.eq	404a20 <__gettextparse+0x288>  // b.none
  404a18:	7100247f 	cmp	w3, #0x9
  404a1c:	54000ce1 	b.ne	404bb8 <__gettextparse+0x420>  // b.any
  404a20:	f85f0282 	ldur	x2, [x20, #-16]
  404a24:	f9400280 	ldr	x0, [x20]
  404a28:	b85f8281 	ldur	w1, [x20, #-8]
  404a2c:	a90803a2 	stp	x2, x0, [x29, #128]
  404a30:	910203a2 	add	x2, x29, #0x80
  404a34:	52800040 	mov	w0, #0x2                   	// #2
  404a38:	d1006299 	sub	x25, x20, #0x18
  404a3c:	97ffff13 	bl	404688 <new_exp>
  404a40:	d1001a73 	sub	x19, x19, #0x6
  404a44:	12800003 	mov	w3, #0xffffffff            	// #-1
  404a48:	52800047 	mov	w7, #0x2                   	// #2
  404a4c:	79c00262 	ldrsh	w2, [x19]
  404a50:	91002334 	add	x20, x25, #0x8
  404a54:	f9000720 	str	x0, [x25, #8]
  404a58:	0b030041 	add	w1, w2, w3
  404a5c:	7100d83f 	cmp	w1, #0x36
  404a60:	54000088 	b.hi	404a70 <__gettextparse+0x2d8>  // b.pmore
  404a64:	38e1cac0 	ldrsb	w0, [x22, w1, sxtw]
  404a68:	6b02001f 	cmp	w0, w2
  404a6c:	54000d60 	b.eq	404c18 <__gettextparse+0x480>  // b.none
  404a70:	91036300 	add	x0, x24, #0xd8
  404a74:	38e7c803 	ldrsb	w3, [x0, w7, sxtw]
  404a78:	d37ffae1 	lsl	x1, x23, #1
  404a7c:	79000663 	strh	w3, [x19, #2]
  404a80:	d1000820 	sub	x0, x1, #0x2
  404a84:	91000a73 	add	x19, x19, #0x2
  404a88:	8b000360 	add	x0, x27, x0
  404a8c:	eb00027f 	cmp	x19, x0
  404a90:	540005c3 	b.cc	404b48 <__gettextparse+0x3b0>  // b.lo, b.ul, b.last
  404a94:	cb1b0274 	sub	x20, x19, x27
  404a98:	b90073a3 	str	w3, [x29, #112]
  404a9c:	d284e1e0 	mov	x0, #0x270f                	// #9999
  404aa0:	eb0002ff 	cmp	x23, x0
  404aa4:	9341fe94 	asr	x20, x20, #1
  404aa8:	91000694 	add	x20, x20, #0x1
  404aac:	540012e8 	b.hi	404d08 <__gettextparse+0x570>  // b.pmore
  404ab0:	d284e206 	mov	x6, #0x2710                	// #10000
  404ab4:	eb06003f 	cmp	x1, x6
  404ab8:	9a869037 	csel	x23, x1, x6, ls  // ls = plast
  404abc:	8b170ae0 	add	x0, x23, x23, lsl #2
  404ac0:	d37ff800 	lsl	x0, x0, #1
  404ac4:	91001c00 	add	x0, x0, #0x7
  404ac8:	94003a12 	bl	413310 <__libc_malloc>
  404acc:	aa0003fc 	mov	x28, x0
  404ad0:	b40011c0 	cbz	x0, 404d08 <__gettextparse+0x570>
  404ad4:	d37ffa93 	lsl	x19, x20, #1
  404ad8:	aa1b03e1 	mov	x1, x27
  404adc:	aa1303e2 	mov	x2, x19
  404ae0:	8b170419 	add	x25, x0, x23, lsl #1
  404ae4:	d37df294 	lsl	x20, x20, #3
  404ae8:	97ffedda 	bl	400250 <.plt+0x10>
  404aec:	aa1a03e1 	mov	x1, x26
  404af0:	aa1403e2 	mov	x2, x20
  404af4:	aa1903e0 	mov	x0, x25
  404af8:	97ffedd6 	bl	400250 <.plt+0x10>
  404afc:	910263a0 	add	x0, x29, #0x98
  404b00:	d37ffafa 	lsl	x26, x23, #1
  404b04:	eb00037f 	cmp	x27, x0
  404b08:	b94073a3 	ldr	w3, [x29, #112]
  404b0c:	540000a0 	b.eq	404b20 <__gettextparse+0x388>  // b.none
  404b10:	b90073a3 	str	w3, [x29, #112]
  404b14:	aa1b03e0 	mov	x0, x27
  404b18:	94003b96 	bl	413970 <__free>
  404b1c:	b94073a3 	ldr	w3, [x29, #112]
  404b20:	d1000a73 	sub	x19, x19, #0x2
  404b24:	d1000b5a 	sub	x26, x26, #0x2
  404b28:	8b130393 	add	x19, x28, x19
  404b2c:	d1002294 	sub	x20, x20, #0x8
  404b30:	8b1a039a 	add	x26, x28, x26
  404b34:	8b140334 	add	x20, x25, x20
  404b38:	eb1a027f 	cmp	x19, x26
  404b3c:	54001a62 	b.cs	404e88 <__gettextparse+0x6f0>  // b.hs, b.nlast
  404b40:	aa1903fa 	mov	x26, x25
  404b44:	aa1c03fb 	mov	x27, x28
  404b48:	7100247f 	cmp	w3, #0x9
  404b4c:	54ffe5e1 	b.ne	404808 <__gettextparse+0x70>  // b.any
  404b50:	aa1b03f3 	mov	x19, x27
  404b54:	52800014 	mov	w20, #0x0                   	// #0
  404b58:	17ffff75 	b	40492c <__gettextparse+0x194>
  404b5c:	f94037a2 	ldr	x2, [x29, #104]
  404b60:	f9400043 	ldr	x3, [x2]
  404b64:	39400062 	ldrb	w2, [x3]
  404b68:	35000082 	cbnz	w2, 404b78 <__gettextparse+0x3e0>
  404b6c:	14000032 	b	404c34 <__gettextparse+0x49c>
  404b70:	38401c62 	ldrb	w2, [x3, #1]!
  404b74:	34000602 	cbz	w2, 404c34 <__gettextparse+0x49c>
  404b78:	7100805f 	cmp	w2, #0x20
  404b7c:	7a491844 	ccmp	w2, #0x9, #0x4, ne  // ne = any
  404b80:	54ffff80 	b.eq	404b70 <__gettextparse+0x3d8>  // b.none
  404b84:	91000467 	add	x7, x3, #0x1
  404b88:	2a0203f5 	mov	w21, w2
  404b8c:	7101f05f 	cmp	w2, #0x7c
  404b90:	54000b09 	b.ls	404cf0 <__gettextparse+0x558>  // b.plast
  404b94:	f94037a2 	ldr	x2, [x29, #104]
  404b98:	52802015 	mov	w21, #0x100                 	// #256
  404b9c:	f9000047 	str	x7, [x2]
  404ba0:	52800022 	mov	w2, #0x1                   	// #1
  404ba4:	17ffff23 	b	404830 <__gettextparse+0x98>
  404ba8:	7100147f 	cmp	w3, #0x5
  404bac:	54000960 	b.eq	404cd8 <__gettextparse+0x540>  // b.none
  404bb0:	7100187f 	cmp	w3, #0x6
  404bb4:	54fff360 	b.eq	404a20 <__gettextparse+0x288>  // b.none
  404bb8:	91030307 	add	x7, x24, #0xc0
  404bbc:	91034302 	add	x2, x24, #0xd0
  404bc0:	cb010e99 	sub	x25, x20, x1, lsl #3
  404bc4:	cb010673 	sub	x19, x19, x1, lsl #1
  404bc8:	3863c8e7 	ldrb	w7, [x7, w3, sxtw]
  404bcc:	510040e7 	sub	w7, w7, #0x10
  404bd0:	38e7c843 	ldrsb	w3, [x2, w7, sxtw]
  404bd4:	17ffff9e 	b	404a4c <__gettextparse+0x2b4>
  404bd8:	aa1403f9 	mov	x25, x20
  404bdc:	128001e7 	mov	w7, #0xfffffff0            	// #-16
  404be0:	f9400680 	ldr	x0, [x20, #8]
  404be4:	17ffff9a 	b	404a4c <__gettextparse+0x2b4>
  404be8:	d2800002 	mov	x2, #0x0                   	// #0
  404bec:	2a0703e1 	mov	w1, w7
  404bf0:	52800000 	mov	w0, #0x0                   	// #0
  404bf4:	d1002299 	sub	x25, x20, #0x8
  404bf8:	97fffea4 	bl	404688 <new_exp>
  404bfc:	d1000a73 	sub	x19, x19, #0x2
  404c00:	b40013e0 	cbz	x0, 404e7c <__gettextparse+0x6e4>
  404c04:	f9400281 	ldr	x1, [x20]
  404c08:	12800003 	mov	w3, #0xffffffff            	// #-1
  404c0c:	52800047 	mov	w7, #0x2                   	// #2
  404c10:	f9000401 	str	x1, [x0, #8]
  404c14:	17ffff8e 	b	404a4c <__gettextparse+0x2b4>
  404c18:	f9403fa0 	ldr	x0, [x29, #120]
  404c1c:	3861c803 	ldrb	w3, [x0, w1, sxtw]
  404c20:	17ffff96 	b	404a78 <__gettextparse+0x2e0>
  404c24:	54ffe5e1 	b.ne	4048e0 <__gettextparse+0x148>  // b.any
  404c28:	aa1b03f3 	mov	x19, x27
  404c2c:	52800034 	mov	w20, #0x1                   	// #1
  404c30:	17ffff3f 	b	40492c <__gettextparse+0x194>
  404c34:	f94037a2 	ldr	x2, [x29, #104]
  404c38:	52800015 	mov	w21, #0x0                   	// #0
  404c3c:	f9000043 	str	x3, [x2]
  404c40:	52800002 	mov	w2, #0x0                   	// #0
  404c44:	17fffefc 	b	404834 <__gettextparse+0x9c>
  404c48:	f9400281 	ldr	x1, [x20]
  404c4c:	b4001401 	cbz	x1, 404ecc <__gettextparse+0x734>
  404c50:	f94037a2 	ldr	x2, [x29, #104]
  404c54:	d1002299 	sub	x25, x20, #0x8
  404c58:	d1000a73 	sub	x19, x19, #0x2
  404c5c:	12800123 	mov	w3, #0xfffffff6            	// #-10
  404c60:	f9000441 	str	x1, [x2, #8]
  404c64:	17ffff7a 	b	404a4c <__gettextparse+0x2b4>
  404c68:	aa1403f9 	mov	x25, x20
  404c6c:	2a0703e0 	mov	w0, w7
  404c70:	12800003 	mov	w3, #0xffffffff            	// #-1
  404c74:	910203a2 	add	x2, x29, #0x80
  404c78:	b90073a3 	str	w3, [x29, #112]
  404c7c:	52800041 	mov	w1, #0x2                   	// #2
  404c80:	f85f0727 	ldr	x7, [x25], #-16
  404c84:	d1001273 	sub	x19, x19, #0x4
  404c88:	f90043a7 	str	x7, [x29, #128]
  404c8c:	97fffe7f 	bl	404688 <new_exp>
  404c90:	52800047 	mov	w7, #0x2                   	// #2
  404c94:	b94073a3 	ldr	w3, [x29, #112]
  404c98:	17ffff6d 	b	404a4c <__gettextparse+0x2b4>
  404c9c:	d2800002 	mov	x2, #0x0                   	// #0
  404ca0:	52800001 	mov	w1, #0x0                   	// #0
  404ca4:	52800000 	mov	w0, #0x0                   	// #0
  404ca8:	97fffe78 	bl	404688 <new_exp>
  404cac:	d1002299 	sub	x25, x20, #0x8
  404cb0:	d1000a73 	sub	x19, x19, #0x2
  404cb4:	12800003 	mov	w3, #0xffffffff            	// #-1
  404cb8:	52800047 	mov	w7, #0x2                   	// #2
  404cbc:	17ffff64 	b	404a4c <__gettextparse+0x2b4>
  404cc0:	f85f0281 	ldur	x1, [x20, #-16]
  404cc4:	910203a2 	add	x2, x29, #0x80
  404cc8:	f9400280 	ldr	x0, [x20]
  404ccc:	a90803a1 	stp	x1, x0, [x29, #128]
  404cd0:	528001e1 	mov	w1, #0xf                   	// #15
  404cd4:	17ffff58 	b	404a34 <__gettextparse+0x29c>
  404cd8:	f85f0281 	ldur	x1, [x20, #-16]
  404cdc:	910203a2 	add	x2, x29, #0x80
  404ce0:	f9400280 	ldr	x0, [x20]
  404ce4:	a90803a1 	stp	x1, x0, [x29, #128]
  404ce8:	528001c1 	mov	w1, #0xe                   	// #14
  404cec:	17ffff52 	b	404a34 <__gettextparse+0x29c>
  404cf0:	f0000248 	adrp	x8, 44f000 <_nl_locale_subfreeres+0x1b8>
  404cf4:	91252108 	add	x8, x8, #0x948
  404cf8:	38624904 	ldrb	w4, [x8, w2, uxtw]
  404cfc:	10000065 	adr	x5, 404d08 <__gettextparse+0x570>
  404d00:	8b2488a4 	add	x4, x5, w4, sxtb #2
  404d04:	d61f0080 	br	x4
  404d08:	aa1b03f3 	mov	x19, x27
  404d0c:	52800054 	mov	w20, #0x2                   	// #2
  404d10:	17ffff07 	b	40492c <__gettextparse+0x194>
  404d14:	39400462 	ldrb	w2, [x3, #1]
  404d18:	7100f45f 	cmp	w2, #0x3d
  404d1c:	54000d40 	b.eq	404ec4 <__gettextparse+0x72c>  // b.none
  404d20:	d2800122 	mov	x2, #0x9                   	// #9
  404d24:	f94037a3 	ldr	x3, [x29, #104]
  404d28:	52802075 	mov	w21, #0x103                 	// #259
  404d2c:	f9000067 	str	x7, [x3]
  404d30:	f94033a3 	ldr	x3, [x29, #96]
  404d34:	b3407c43 	bfxil	x3, x2, #0, #32
  404d38:	528000e2 	mov	w2, #0x7                   	// #7
  404d3c:	f90033a3 	str	x3, [x29, #96]
  404d40:	17fffebc 	b	404830 <__gettextparse+0x98>
  404d44:	39400462 	ldrb	w2, [x3, #1]
  404d48:	7100f45f 	cmp	w2, #0x3d
  404d4c:	54fff241 	b.ne	404b94 <__gettextparse+0x3fc>  // b.any
  404d50:	d2800182 	mov	x2, #0xc                   	// #12
  404d54:	f94033a4 	ldr	x4, [x29, #96]
  404d58:	91000863 	add	x3, x3, #0x2
  404d5c:	52802055 	mov	w21, #0x102                 	// #258
  404d60:	b3407c44 	bfxil	x4, x2, #0, #32
  404d64:	f94037a2 	ldr	x2, [x29, #104]
  404d68:	f90033a4 	str	x4, [x29, #96]
  404d6c:	f9000043 	str	x3, [x2]
  404d70:	528000c2 	mov	w2, #0x6                   	// #6
  404d74:	17fffeaf 	b	404830 <__gettextparse+0x98>
  404d78:	d28000c2 	mov	x2, #0x6                   	// #6
  404d7c:	f94037a3 	ldr	x3, [x29, #104]
  404d80:	52802095 	mov	w21, #0x104                 	// #260
  404d84:	f9000067 	str	x7, [x3]
  404d88:	f94033a3 	ldr	x3, [x29, #96]
  404d8c:	b3407c43 	bfxil	x3, x2, #0, #32
  404d90:	52800102 	mov	w2, #0x8                   	// #8
  404d94:	f90033a3 	str	x3, [x29, #96]
  404d98:	17fffea6 	b	404830 <__gettextparse+0x98>
  404d9c:	d2800062 	mov	x2, #0x3                   	// #3
  404da0:	f94037a3 	ldr	x3, [x29, #104]
  404da4:	528020b5 	mov	w21, #0x105                 	// #261
  404da8:	f9000067 	str	x7, [x3]
  404dac:	f94033a3 	ldr	x3, [x29, #96]
  404db0:	b3407c43 	bfxil	x3, x2, #0, #32
  404db4:	52800122 	mov	w2, #0x9                   	// #9
  404db8:	f90033a3 	str	x3, [x29, #96]
  404dbc:	17fffe9d 	b	404830 <__gettextparse+0x98>
  404dc0:	39400468 	ldrb	w8, [x3, #1]
  404dc4:	6b02011f 	cmp	w8, w2
  404dc8:	54ffee61 	b.ne	404b94 <__gettextparse+0x3fc>  // b.any
  404dcc:	91000867 	add	x7, x3, #0x2
  404dd0:	f94037a2 	ldr	x2, [x29, #104]
  404dd4:	f9000047 	str	x7, [x2]
  404dd8:	17fffe92 	b	404820 <__gettextparse+0x88>
  404ddc:	d28000a2 	mov	x2, #0x5                   	// #5
  404de0:	17fffff0 	b	404da0 <__gettextparse+0x608>
  404de4:	39400462 	ldrb	w2, [x3, #1]
  404de8:	7100f45f 	cmp	w2, #0x3d
  404dec:	54000540 	b.eq	404e94 <__gettextparse+0x6fc>  // b.none
  404df0:	f94037a2 	ldr	x2, [x29, #104]
  404df4:	52800435 	mov	w21, #0x21                  	// #33
  404df8:	f9000047 	str	x7, [x2]
  404dfc:	52800142 	mov	w2, #0xa                   	// #10
  404e00:	17fffe8c 	b	404830 <__gettextparse+0x98>
  404e04:	39400462 	ldrb	w2, [x3, #1]
  404e08:	7100f45f 	cmp	w2, #0x3d
  404e0c:	54000480 	b.eq	404e9c <__gettextparse+0x704>  // b.none
  404e10:	d2800102 	mov	x2, #0x8                   	// #8
  404e14:	17ffffc4 	b	404d24 <__gettextparse+0x58c>
  404e18:	d2800082 	mov	x2, #0x4                   	// #4
  404e1c:	17ffffe1 	b	404da0 <__gettextparse+0x608>
  404e20:	39400468 	ldrb	w8, [x3, #1]
  404e24:	5100c042 	sub	w2, w2, #0x30
  404e28:	5100c103 	sub	w3, w8, #0x30
  404e2c:	93407c42 	sxtw	x2, w2
  404e30:	12001c68 	and	w8, w3, #0xff
  404e34:	7100251f 	cmp	w8, #0x9
  404e38:	54000128 	b.hi	404e5c <__gettextparse+0x6c4>  // b.pmore
  404e3c:	38401ce8 	ldrb	w8, [x7, #1]!
  404e40:	93407c69 	sxtw	x9, w3
  404e44:	8b020842 	add	x2, x2, x2, lsl #2
  404e48:	5100c103 	sub	w3, w8, #0x30
  404e4c:	12001c68 	and	w8, w3, #0xff
  404e50:	8b020522 	add	x2, x9, x2, lsl #1
  404e54:	7100251f 	cmp	w8, #0x9
  404e58:	54ffff29 	b.ls	404e3c <__gettextparse+0x6a4>  // b.plast
  404e5c:	f90033a2 	str	x2, [x29, #96]
  404e60:	528020d5 	mov	w21, #0x106                 	// #262
  404e64:	f94037a2 	ldr	x2, [x29, #104]
  404e68:	f9000047 	str	x7, [x2]
  404e6c:	52800162 	mov	w2, #0xb                   	// #11
  404e70:	17fffe70 	b	404830 <__gettextparse+0x98>
  404e74:	d28000e2 	mov	x2, #0x7                   	// #7
  404e78:	17ffffc1 	b	404d7c <__gettextparse+0x5e4>
  404e7c:	12800003 	mov	w3, #0xffffffff            	// #-1
  404e80:	52800047 	mov	w7, #0x2                   	// #2
  404e84:	17fffef2 	b	404a4c <__gettextparse+0x2b4>
  404e88:	aa1c03f3 	mov	x19, x28
  404e8c:	52800034 	mov	w20, #0x1                   	// #1
  404e90:	17fffeaa 	b	404938 <__gettextparse+0x1a0>
  404e94:	d28001a2 	mov	x2, #0xd                   	// #13
  404e98:	17ffffaf 	b	404d54 <__gettextparse+0x5bc>
  404e9c:	d2800142 	mov	x2, #0xa                   	// #10
  404ea0:	f94033a4 	ldr	x4, [x29, #96]
  404ea4:	91000863 	add	x3, x3, #0x2
  404ea8:	52802075 	mov	w21, #0x103                 	// #259
  404eac:	b3407c44 	bfxil	x4, x2, #0, #32
  404eb0:	f94037a2 	ldr	x2, [x29, #104]
  404eb4:	f90033a4 	str	x4, [x29, #96]
  404eb8:	f9000043 	str	x3, [x2]
  404ebc:	528000e2 	mov	w2, #0x7                   	// #7
  404ec0:	17fffe5c 	b	404830 <__gettextparse+0x98>
  404ec4:	d2800162 	mov	x2, #0xb                   	// #11
  404ec8:	17fffff6 	b	404ea0 <__gettextparse+0x708>
  404ecc:	aa1b03f3 	mov	x19, x27
  404ed0:	2a0703f4 	mov	w20, w7
  404ed4:	17fffe96 	b	40492c <__gettextparse+0x194>
  404ed8:	940054d2 	bl	41a220 <__stack_chk_fail>
  404edc:	00000000 	.inst	0x00000000 ; undefined

0000000000404ee0 <__gettext_extract_plural>:
  404ee0:	a9ba7bfd 	stp	x29, x30, [sp, #-96]!
  404ee4:	910003fd 	mov	x29, sp
  404ee8:	f9000ff4 	str	x20, [sp, #24]
  404eec:	d00003d4 	adrp	x20, 47e000 <__FRAME_END__+0x105ac>
  404ef0:	9128e283 	add	x3, x20, #0xa38
  404ef4:	a902dff6 	stp	x22, x23, [sp, #40]
  404ef8:	f9400064 	ldr	x4, [x3]
  404efc:	f9002fa4 	str	x4, [x29, #88]
  404f00:	d2800004 	mov	x4, #0x0                   	// #0
  404f04:	aa0103f7 	mov	x23, x1
  404f08:	aa0203f6 	mov	x22, x2
  404f0c:	b4000220 	cbz	x0, 404f50 <__gettext_extract_plural+0x70>
  404f10:	f9000bb3 	str	x19, [x29, #16]
  404f14:	f0000241 	adrp	x1, 44f000 <_nl_locale_subfreeres+0x1b8>
  404f18:	f90013b5 	str	x21, [x29, #32]
  404f1c:	91304021 	add	x1, x1, #0xc10
  404f20:	aa0003f3 	mov	x19, x0
  404f24:	9400425f 	bl	4158a0 <strstr>
  404f28:	f0000241 	adrp	x1, 44f000 <_nl_locale_subfreeres+0x1b8>
  404f2c:	aa0003f5 	mov	x21, x0
  404f30:	91306021 	add	x1, x1, #0xc18
  404f34:	aa1303e0 	mov	x0, x19
  404f38:	9400425a 	bl	4158a0 <strstr>
  404f3c:	f10002bf 	cmp	x21, #0x0
  404f40:	fa401804 	ccmp	x0, #0x0, #0x4, ne  // ne = any
  404f44:	54000221 	b.ne	404f88 <__gettext_extract_plural+0xa8>  // b.any
  404f48:	f9400bb3 	ldr	x19, [x29, #16]
  404f4c:	f94013b5 	ldr	x21, [x29, #32]
  404f50:	f0000240 	adrp	x0, 44f000 <_nl_locale_subfreeres+0x1b8>
  404f54:	912ec000 	add	x0, x0, #0xbb0
  404f58:	f90002e0 	str	x0, [x23]
  404f5c:	d2800040 	mov	x0, #0x2                   	// #2
  404f60:	f90002c0 	str	x0, [x22]
  404f64:	9128e294 	add	x20, x20, #0xa38
  404f68:	f9402fa1 	ldr	x1, [x29, #88]
  404f6c:	f9400280 	ldr	x0, [x20]
  404f70:	ca000020 	eor	x0, x1, x0
  404f74:	b50005a0 	cbnz	x0, 405028 <__gettext_extract_plural+0x148>
  404f78:	f9400ff4 	ldr	x20, [sp, #24]
  404f7c:	a942dff6 	ldp	x22, x23, [sp, #40]
  404f80:	a8c67bfd 	ldp	x29, x30, [sp], #96
  404f84:	d65f03c0 	ret
  404f88:	39402401 	ldrb	w1, [x0, #9]
  404f8c:	91002413 	add	x19, x0, #0x9
  404f90:	34fffdc1 	cbz	w1, 404f48 <__gettext_extract_plural+0x68>
  404f94:	d00003c2 	adrp	x2, 47e000 <__FRAME_END__+0x105ac>
  404f98:	f947d442 	ldr	x2, [x2, #4008]
  404f9c:	d53bd043 	mrs	x3, tpidr_el0
  404fa0:	d37f1c20 	ubfiz	x0, x1, #1, #8
  404fa4:	f8626862 	ldr	x2, [x3, x2]
  404fa8:	78606840 	ldrh	w0, [x2, x0]
  404fac:	376800a0 	tbnz	w0, #13, 404fc0 <__gettext_extract_plural+0xe0>
  404fb0:	14000007 	b	404fcc <__gettext_extract_plural+0xec>
  404fb4:	d37f1c20 	ubfiz	x0, x1, #1, #8
  404fb8:	78606840 	ldrh	w0, [x2, x0]
  404fbc:	36680080 	tbz	w0, #13, 404fcc <__gettext_extract_plural+0xec>
  404fc0:	38401e61 	ldrb	w1, [x19, #1]!
  404fc4:	35ffff81 	cbnz	w1, 404fb4 <__gettext_extract_plural+0xd4>
  404fc8:	17ffffe0 	b	404f48 <__gettext_extract_plural+0x68>
  404fcc:	5100c021 	sub	w1, w1, #0x30
  404fd0:	12001c21 	and	w1, w1, #0xff
  404fd4:	7100243f 	cmp	w1, #0x9
  404fd8:	54fffb88 	b.hi	404f48 <__gettext_extract_plural+0x68>  // b.pmore
  404fdc:	910103a1 	add	x1, x29, #0x40
  404fe0:	52800142 	mov	w2, #0xa                   	// #10
  404fe4:	aa1303e0 	mov	x0, x19
  404fe8:	94000452 	bl	406130 <__strtoul>
  404fec:	f94023a1 	ldr	x1, [x29, #64]
  404ff0:	eb13003f 	cmp	x1, x19
  404ff4:	54fffaa0 	b.eq	404f48 <__gettext_extract_plural+0x68>  // b.none
  404ff8:	910183a1 	add	x1, x29, #0x60
  404ffc:	91001eb5 	add	x21, x21, #0x7
  405000:	f90002c0 	str	x0, [x22]
  405004:	f81e8c35 	str	x21, [x1, #-24]!
  405008:	aa0103e0 	mov	x0, x1
  40500c:	97fffde3 	bl	404798 <__gettextparse>
  405010:	35fff9c0 	cbnz	w0, 404f48 <__gettext_extract_plural+0x68>
  405014:	f9402ba0 	ldr	x0, [x29, #80]
  405018:	f9400bb3 	ldr	x19, [x29, #16]
  40501c:	f94013b5 	ldr	x21, [x29, #32]
  405020:	f90002e0 	str	x0, [x23]
  405024:	17ffffd0 	b	404f64 <__gettext_extract_plural+0x84>
  405028:	f9000bb3 	str	x19, [x29, #16]
  40502c:	f90013b5 	str	x21, [x29, #32]
  405030:	9400547c 	bl	41a220 <__stack_chk_fail>
  405034:	00000000 	.inst	0x00000000 ; undefined

0000000000405038 <__hash_string>:
  405038:	aa0003e2 	mov	x2, x0
  40503c:	d2800000 	mov	x0, #0x0                   	// #0
  405040:	14000007 	b	40505c <__hash_string+0x24>
  405044:	8b001060 	add	x0, x3, x0, lsl #4
  405048:	92640c01 	and	x1, x0, #0xf0000000
  40504c:	9260ec03 	and	x3, x0, #0xffffffff0fffffff
  405050:	f100003f 	cmp	x1, #0x0
  405054:	ca416061 	eor	x1, x3, x1, lsr #24
  405058:	9a801020 	csel	x0, x1, x0, ne  // ne = any
  40505c:	39400041 	ldrb	w1, [x2]
  405060:	91000442 	add	x2, x2, #0x1
  405064:	92401c23 	and	x3, x1, #0xff
  405068:	35fffee1 	cbnz	w1, 405044 <__hash_string+0xc>
  40506c:	d65f03c0 	ret

0000000000405070 <setjmp>:
  405070:	d2800021 	mov	x1, #0x1                   	// #1
  405074:	14000007 	b	405090 <__sigsetjmp>
  405078:	d503201f 	nop
  40507c:	d503201f 	nop

0000000000405080 <_setjmp>:
  405080:	d2800001 	mov	x1, #0x0                   	// #0
  405084:	14000003 	b	405090 <__sigsetjmp>
  405088:	d503201f 	nop
  40508c:	d503201f 	nop

0000000000405090 <__sigsetjmp>:
  405090:	a9005013 	stp	x19, x20, [x0]
  405094:	a9015815 	stp	x21, x22, [x0, #16]
  405098:	a9026017 	stp	x23, x24, [x0, #32]
  40509c:	a9036819 	stp	x25, x26, [x0, #48]
  4050a0:	a904701b 	stp	x27, x28, [x0, #64]
  4050a4:	b00003c2 	adrp	x2, 47e000 <__FRAME_END__+0x105ac>
  4050a8:	f9452043 	ldr	x3, [x2, #2624]
  4050ac:	ca0303c4 	eor	x4, x30, x3
  4050b0:	a905101d 	stp	x29, x4, [x0, #80]
  4050b4:	d503201f 	nop
  4050b8:	6d072408 	stp	d8, d9, [x0, #112]
  4050bc:	6d082c0a 	stp	d10, d11, [x0, #128]
  4050c0:	6d09340c 	stp	d12, d13, [x0, #144]
  4050c4:	6d0a3c0e 	stp	d14, d15, [x0, #160]
  4050c8:	910003e4 	mov	x4, sp
  4050cc:	b00003c2 	adrp	x2, 47e000 <__FRAME_END__+0x105ac>
  4050d0:	f9452043 	ldr	x3, [x2, #2624]
  4050d4:	ca030085 	eor	x5, x4, x3
  4050d8:	f9003405 	str	x5, [x0, #104]
  4050dc:	14000001 	b	4050e0 <__sigjmp_save>

00000000004050e0 <__sigjmp_save>:
  4050e0:	a9be7bfd 	stp	x29, x30, [sp, #-32]!
  4050e4:	910003fd 	mov	x29, sp
  4050e8:	f9000bf3 	str	x19, [sp, #16]
  4050ec:	aa0003f3 	mov	x19, x0
  4050f0:	340000e1 	cbz	w1, 40510c <__sigjmp_save+0x2c>
  4050f4:	9102e002 	add	x2, x0, #0xb8
  4050f8:	d2800001 	mov	x1, #0x0                   	// #0
  4050fc:	52800000 	mov	w0, #0x0                   	// #0
  405100:	94000042 	bl	405208 <__sigprocmask>
  405104:	7100001f 	cmp	w0, #0x0
  405108:	1a9f17e1 	cset	w1, eq  // eq = none
  40510c:	b900b261 	str	w1, [x19, #176]
  405110:	52800000 	mov	w0, #0x0                   	// #0
  405114:	f9400bf3 	ldr	x19, [sp, #16]
  405118:	a8c27bfd 	ldp	x29, x30, [sp], #32
  40511c:	d65f03c0 	ret

0000000000405120 <raise>:
  405120:	a9ad7bfd 	stp	x29, x30, [sp, #-304]!
  405124:	d2801002 	mov	x2, #0x80                  	// #128
  405128:	910003fd 	mov	x29, sp
  40512c:	a90153f3 	stp	x19, x20, [sp, #16]
  405130:	b00003d3 	adrp	x19, 47e000 <__FRAME_END__+0x105ac>
  405134:	9128e261 	add	x1, x19, #0xa38
  405138:	2a0003f4 	mov	w20, w0
  40513c:	f9400020 	ldr	x0, [x1]
  405140:	f90097a0 	str	x0, [x29, #296]
  405144:	d2800000 	mov	x0, #0x0                   	// #0
  405148:	d0000241 	adrp	x1, 44f000 <_nl_locale_subfreeres+0x1b8>
  40514c:	9102a3a0 	add	x0, x29, #0xa8
  405150:	9130a021 	add	x1, x1, #0xc28
  405154:	97ffec3f 	bl	400250 <.plt+0x10>
  405158:	b25ff7e1 	mov	x1, #0xfffffffe7fffffff    	// #-6442450945
  40515c:	d2800000 	mov	x0, #0x0                   	// #0
  405160:	f90057a1 	str	x1, [x29, #168]
  405164:	9100a3a2 	add	x2, x29, #0x28
  405168:	d2800103 	mov	x3, #0x8                   	// #8
  40516c:	d28010e8 	mov	x8, #0x87                  	// #135
  405170:	9102a3a1 	add	x1, x29, #0xa8
  405174:	d4000001 	svc	#0x0
  405178:	d2801588 	mov	x8, #0xac                  	// #172
  40517c:	d4000001 	svc	#0x0
  405180:	d2801648 	mov	x8, #0xb2                  	// #178
  405184:	aa0003e3 	mov	x3, x0
  405188:	d4000001 	svc	#0x0
  40518c:	d2801068 	mov	x8, #0x83                  	// #131
  405190:	93407c01 	sxtw	x1, w0
  405194:	93407e82 	sxtw	x2, w20
  405198:	93407c60 	sxtw	x0, w3
  40519c:	d4000001 	svc	#0x0
  4051a0:	b140041f 	cmn	x0, #0x1, lsl #12
  4051a4:	54000228 	b.hi	4051e8 <raise+0xc8>  // b.pmore
  4051a8:	2a0003e4 	mov	w4, w0
  4051ac:	d2800040 	mov	x0, #0x2                   	// #2
  4051b0:	9100a3a1 	add	x1, x29, #0x28
  4051b4:	d2800002 	mov	x2, #0x0                   	// #0
  4051b8:	d2800103 	mov	x3, #0x8                   	// #8
  4051bc:	d28010e8 	mov	x8, #0x87                  	// #135
  4051c0:	d4000001 	svc	#0x0
  4051c4:	9128e273 	add	x19, x19, #0xa38
  4051c8:	2a0403e0 	mov	w0, w4
  4051cc:	f94097a2 	ldr	x2, [x29, #296]
  4051d0:	f9400261 	ldr	x1, [x19]
  4051d4:	ca010041 	eor	x1, x2, x1
  4051d8:	b5000161 	cbnz	x1, 405204 <raise+0xe4>
  4051dc:	a94153f3 	ldp	x19, x20, [sp, #16]
  4051e0:	a8d37bfd 	ldp	x29, x30, [sp], #304
  4051e4:	d65f03c0 	ret
  4051e8:	b00003c1 	adrp	x1, 47e000 <__FRAME_END__+0x105ac>
  4051ec:	f947c821 	ldr	x1, [x1, #3984]
  4051f0:	d53bd042 	mrs	x2, tpidr_el0
  4051f4:	4b0003e0 	neg	w0, w0
  4051f8:	12800004 	mov	w4, #0xffffffff            	// #-1
  4051fc:	b8216840 	str	w0, [x2, x1]
  405200:	17ffffeb 	b	4051ac <raise+0x8c>
  405204:	94005407 	bl	41a220 <__stack_chk_fail>

0000000000405208 <__sigprocmask>:
  405208:	a9b47bfd 	stp	x29, x30, [sp, #-192]!
  40520c:	910003fd 	mov	x29, sp
  405210:	a90153f3 	stp	x19, x20, [sp, #16]
  405214:	b00003d3 	adrp	x19, 47e000 <__FRAME_END__+0x105ac>
  405218:	9128e263 	add	x3, x19, #0xa38
  40521c:	aa0203f4 	mov	x20, x2
  405220:	f9400064 	ldr	x4, [x3]
  405224:	f9005fa4 	str	x4, [x29, #184]
  405228:	d2800004 	mov	x4, #0x0                   	// #0
  40522c:	f90013f5 	str	x21, [sp, #32]
  405230:	d2800002 	mov	x2, #0x0                   	// #0
  405234:	2a0003f5 	mov	w21, w0
  405238:	b40000e1 	cbz	x1, 405254 <__sigprocmask+0x4c>
  40523c:	f90017b6 	str	x22, [x29, #40]
  405240:	f9400036 	ldr	x22, [x1]
  405244:	f26106df 	tst	x22, #0x180000000
  405248:	54000281 	b.ne	405298 <__sigprocmask+0x90>  // b.any
  40524c:	f94017b6 	ldr	x22, [x29, #40]
  405250:	aa0103e2 	mov	x2, x1
  405254:	aa0203e1 	mov	x1, x2
  405258:	93407ea0 	sxtw	x0, w21
  40525c:	aa1403e2 	mov	x2, x20
  405260:	d2800103 	mov	x3, #0x8                   	// #8
  405264:	d28010e8 	mov	x8, #0x87                  	// #135
  405268:	d4000001 	svc	#0x0
  40526c:	b140041f 	cmn	x0, #0x1, lsl #12
  405270:	54000348 	b.hi	4052d8 <__sigprocmask+0xd0>  // b.pmore
  405274:	9128e273 	add	x19, x19, #0xa38
  405278:	f9405fa2 	ldr	x2, [x29, #184]
  40527c:	f9400261 	ldr	x1, [x19]
  405280:	ca010041 	eor	x1, x2, x1
  405284:	b5000381 	cbnz	x1, 4052f4 <__sigprocmask+0xec>
  405288:	a94153f3 	ldp	x19, x20, [sp, #16]
  40528c:	f94013f5 	ldr	x21, [sp, #32]
  405290:	a8cc7bfd 	ldp	x29, x30, [sp], #192
  405294:	d65f03c0 	ret
  405298:	d2801002 	mov	x2, #0x80                  	// #128
  40529c:	9100e3a0 	add	x0, x29, #0x38
  4052a0:	97ffebec 	bl	400250 <.plt+0x10>
  4052a4:	925ff6d6 	and	x22, x22, #0xfffffffe7fffffff
  4052a8:	9100e3a2 	add	x2, x29, #0x38
  4052ac:	f9001fb6 	str	x22, [x29, #56]
  4052b0:	aa0203e1 	mov	x1, x2
  4052b4:	f94017b6 	ldr	x22, [x29, #40]
  4052b8:	93407ea0 	sxtw	x0, w21
  4052bc:	aa1403e2 	mov	x2, x20
  4052c0:	d2800103 	mov	x3, #0x8                   	// #8
  4052c4:	d28010e8 	mov	x8, #0x87                  	// #135
  4052c8:	d4000001 	svc	#0x0
  4052cc:	b140041f 	cmn	x0, #0x1, lsl #12
  4052d0:	54fffd29 	b.ls	405274 <__sigprocmask+0x6c>  // b.plast
  4052d4:	d503201f 	nop
  4052d8:	b00003c1 	adrp	x1, 47e000 <__FRAME_END__+0x105ac>
  4052dc:	f947c821 	ldr	x1, [x1, #3984]
  4052e0:	d53bd042 	mrs	x2, tpidr_el0
  4052e4:	4b0003e3 	neg	w3, w0
  4052e8:	12800000 	mov	w0, #0xffffffff            	// #-1
  4052ec:	b8216843 	str	w3, [x2, x1]
  4052f0:	17ffffe1 	b	405274 <__sigprocmask+0x6c>
  4052f4:	f90017b6 	str	x22, [x29, #40]
  4052f8:	940053ca 	bl	41a220 <__stack_chk_fail>
  4052fc:	00000000 	.inst	0x00000000 ; undefined

0000000000405300 <abort>:
  405300:	a9ac7bfd 	stp	x29, x30, [sp, #-320]!
  405304:	b00003c1 	adrp	x1, 47e000 <__FRAME_END__+0x105ac>
  405308:	9128e021 	add	x1, x1, #0xa38
  40530c:	910003fd 	mov	x29, sp
  405310:	a90153f3 	stp	x19, x20, [sp, #16]
  405314:	f00003d3 	adrp	x19, 480000 <__progname_full>
  405318:	913e2260 	add	x0, x19, #0xf88
  40531c:	f9400022 	ldr	x2, [x1]
  405320:	f9009fa2 	str	x2, [x29, #312]
  405324:	d2800002 	mov	x2, #0x0                   	// #0
  405328:	d53bd054 	mrs	x20, tpidr_el0
  40532c:	d11bc294 	sub	x20, x20, #0x6f0
  405330:	f9400401 	ldr	x1, [x0, #8]
  405334:	eb14003f 	cmp	x1, x20
  405338:	54000140 	b.eq	405360 <abort+0x60>  // b.none
  40533c:	52800021 	mov	w1, #0x1                   	// #1
  405340:	885ffc02 	ldaxr	w2, [x0]
  405344:	35000062 	cbnz	w2, 405350 <abort+0x50>
  405348:	88037c01 	stxr	w3, w1, [x0]
  40534c:	35ffffa3 	cbnz	w3, 405340 <abort+0x40>
  405350:	7100005f 	cmp	w2, #0x0
  405354:	54000e61 	b.ne	405520 <abort+0x220>  // b.any
  405358:	913e2260 	add	x0, x19, #0xf88
  40535c:	f9000414 	str	x20, [x0, #8]
  405360:	913e2261 	add	x1, x19, #0xf88
  405364:	b9400422 	ldr	w2, [x1, #4]
  405368:	b9401020 	ldr	w0, [x1, #16]
  40536c:	11000442 	add	w2, w2, #0x1
  405370:	b9000422 	str	w2, [x1, #4]
  405374:	35000220 	cbnz	w0, 4053b8 <abort+0xb8>
  405378:	910063a3 	add	x3, x29, #0x18
  40537c:	910263a0 	add	x0, x29, #0x98
  405380:	52800022 	mov	w2, #0x1                   	// #1
  405384:	b9001022 	str	w2, [x1, #16]
  405388:	f81f841f 	str	xzr, [x0], #-8
  40538c:	eb03001f 	cmp	x0, x3
  405390:	54ffffc1 	b.ne	405388 <abort+0x88>  // b.any
  405394:	f94013a3 	ldr	x3, [x29, #32]
  405398:	d2800002 	mov	x2, #0x0                   	// #0
  40539c:	910083a1 	add	x1, x29, #0x20
  4053a0:	52800020 	mov	w0, #0x1                   	// #1
  4053a4:	b27b0063 	orr	x3, x3, #0x20
  4053a8:	f90013a3 	str	x3, [x29, #32]
  4053ac:	97ffff97 	bl	405208 <__sigprocmask>
  4053b0:	913e2260 	add	x0, x19, #0xf88
  4053b4:	b9401000 	ldr	w0, [x0, #16]
  4053b8:	7100041f 	cmp	w0, #0x1
  4053bc:	540003c0 	b.eq	405434 <abort+0x134>  // b.none
  4053c0:	7100081f 	cmp	w0, #0x2
  4053c4:	540006c0 	b.eq	40549c <abort+0x19c>  // b.none
  4053c8:	71000c1f 	cmp	w0, #0x3
  4053cc:	54000260 	b.eq	405418 <abort+0x118>  // b.none
  4053d0:	7100101f 	cmp	w0, #0x4
  4053d4:	54000160 	b.eq	405400 <abort+0x100>  // b.none
  4053d8:	7100141f 	cmp	w0, #0x5
  4053dc:	54000080 	b.eq	4053ec <abort+0xec>  // b.none
  4053e0:	d4207d00 	brk	#0x3e8
  4053e4:	d4207d00 	brk	#0x3e8
  4053e8:	17fffffe 	b	4053e0 <abort+0xe0>
  4053ec:	913e2273 	add	x19, x19, #0xf88
  4053f0:	528000c1 	mov	w1, #0x6                   	// #6
  4053f4:	52800fe0 	mov	w0, #0x7f                  	// #127
  4053f8:	b9001261 	str	w1, [x19, #16]
  4053fc:	940048f1 	bl	4177c0 <_exit>
  405400:	913e2260 	add	x0, x19, #0xf88
  405404:	528000a1 	mov	w1, #0x5                   	// #5
  405408:	b9001001 	str	w1, [x0, #16]
  40540c:	d4207d00 	brk	#0x3e8
  405410:	b9401000 	ldr	w0, [x0, #16]
  405414:	17fffff1 	b	4053d8 <abort+0xd8>
  405418:	913e2274 	add	x20, x19, #0xf88
  40541c:	52800081 	mov	w1, #0x4                   	// #4
  405420:	528000c0 	mov	w0, #0x6                   	// #6
  405424:	b9001281 	str	w1, [x20, #16]
  405428:	97ffff3e 	bl	405120 <raise>
  40542c:	b9401280 	ldr	w0, [x20, #16]
  405430:	17ffffe8 	b	4053d0 <abort+0xd0>
  405434:	913e2260 	add	x0, x19, #0xf88
  405438:	b9400401 	ldr	w1, [x0, #4]
  40543c:	b900101f 	str	wzr, [x0, #16]
  405440:	51000421 	sub	w1, w1, #0x1
  405444:	b9000401 	str	w1, [x0, #4]
  405448:	34000541 	cbz	w1, 4054f0 <abort+0x1f0>
  40544c:	528000c0 	mov	w0, #0x6                   	// #6
  405450:	97ffff34 	bl	405120 <raise>
  405454:	913e2260 	add	x0, x19, #0xf88
  405458:	f9400401 	ldr	x1, [x0, #8]
  40545c:	eb14003f 	cmp	x1, x20
  405460:	54000160 	b.eq	40548c <abort+0x18c>  // b.none
  405464:	52800021 	mov	w1, #0x1                   	// #1
  405468:	885ffc02 	ldaxr	w2, [x0]
  40546c:	35000062 	cbnz	w2, 405478 <abort+0x178>
  405470:	88037c01 	stxr	w3, w1, [x0]
  405474:	35ffffa3 	cbnz	w3, 405468 <abort+0x168>
  405478:	7100005f 	cmp	w2, #0x0
  40547c:	54000040 	b.eq	405484 <abort+0x184>  // b.none
  405480:	94005302 	bl	41a088 <__lll_lock_wait_private>
  405484:	913e2260 	add	x0, x19, #0xf88
  405488:	f9000414 	str	x20, [x0, #8]
  40548c:	913e2261 	add	x1, x19, #0xf88
  405490:	b9400420 	ldr	w0, [x1, #4]
  405494:	11000400 	add	w0, w0, #0x1
  405498:	b9000420 	str	w0, [x1, #4]
  40549c:	910283a3 	add	x3, x29, #0xa0
  4054a0:	913e2264 	add	x4, x19, #0xf88
  4054a4:	52800065 	mov	w5, #0x3                   	// #3
  4054a8:	52800001 	mov	w1, #0x0                   	// #0
  4054ac:	aa0303e0 	mov	x0, x3
  4054b0:	d2801302 	mov	x2, #0x98                  	// #152
  4054b4:	b9001085 	str	w5, [x4, #16]
  4054b8:	97ffeb6a 	bl	400260 <.plt+0x20>
  4054bc:	aa0003e3 	mov	x3, x0
  4054c0:	91020001 	add	x1, x0, #0x80
  4054c4:	92800000 	mov	x0, #0xffffffffffffffff    	// #-1
  4054c8:	f81f8420 	str	x0, [x1], #-8
  4054cc:	eb03003f 	cmp	x1, x3
  4054d0:	54ffffc1 	b.ne	4054c8 <abort+0x1c8>  // b.any
  4054d4:	d2800002 	mov	x2, #0x0                   	// #0
  4054d8:	528000c0 	mov	w0, #0x6                   	// #6
  4054dc:	b9012bbf 	str	wzr, [x29, #296]
  4054e0:	94008066 	bl	425678 <__sigaction>
  4054e4:	913e2260 	add	x0, x19, #0xf88
  4054e8:	b9401000 	ldr	w0, [x0, #16]
  4054ec:	17ffffb7 	b	4053c8 <abort+0xc8>
  4054f0:	f900041f 	str	xzr, [x0, #8]
  4054f4:	885f7c02 	ldxr	w2, [x0]
  4054f8:	8803fc01 	stlxr	w3, w1, [x0]
  4054fc:	35ffffc3 	cbnz	w3, 4054f4 <abort+0x1f4>
  405500:	7100045f 	cmp	w2, #0x1
  405504:	54fffa4d 	b.le	40544c <abort+0x14c>
  405508:	d2801021 	mov	x1, #0x81                  	// #129
  40550c:	d2800022 	mov	x2, #0x1                   	// #1
  405510:	d2800003 	mov	x3, #0x0                   	// #0
  405514:	d2800c48 	mov	x8, #0x62                  	// #98
  405518:	d4000001 	svc	#0x0
  40551c:	17ffffcc 	b	40544c <abort+0x14c>
  405520:	940052da 	bl	41a088 <__lll_lock_wait_private>
  405524:	17ffff8d 	b	405358 <abort+0x58>

0000000000405528 <msort_with_tmp.part.0>:
  405528:	a9b87bfd 	stp	x29, x30, [sp, #-128]!
  40552c:	910003fd 	mov	x29, sp
  405530:	a90573fb 	stp	x27, x28, [sp, #80]
  405534:	f940001c 	ldr	x28, [x0]
  405538:	a9046bf9 	stp	x25, x26, [sp, #64]
  40553c:	d341fc59 	lsr	x25, x2, #1
  405540:	a90153f3 	stp	x19, x20, [sp, #16]
  405544:	aa0103fa 	mov	x26, x1
  405548:	a9025bf5 	stp	x21, x22, [sp, #32]
  40554c:	cb19005b 	sub	x27, x2, x25
  405550:	a90363f7 	stp	x23, x24, [sp, #48]
  405554:	aa0003f5 	mov	x21, x0
  405558:	f9003ba2 	str	x2, [x29, #112]
  40555c:	f100073f 	cmp	x25, #0x1
  405560:	9b1c073c 	madd	x28, x25, x28, x1
  405564:	54000fe8 	b.hi	405760 <msort_with_tmp.part.0+0x238>  // b.pmore
  405568:	f100077f 	cmp	x27, #0x1
  40556c:	54000f08 	b.hi	40574c <msort_with_tmp.part.0+0x224>  // b.pmore
  405570:	a94002b6 	ldp	x22, x0, [x21]
  405574:	f100037f 	cmp	x27, #0x0
  405578:	1a9f07e1 	cset	w1, ne  // ne = any
  40557c:	f100033f 	cmp	x25, #0x0
  405580:	1a9f1021 	csel	w1, w1, wzr, ne  // ne = any
  405584:	f94012b3 	ldr	x19, [x21, #32]
  405588:	a9415eb8 	ldp	x24, x23, [x21, #16]
  40558c:	f100041f 	cmp	x0, #0x1
  405590:	54001220 	b.eq	4057d4 <msort_with_tmp.part.0+0x2ac>  // b.none
  405594:	b4000ec0 	cbz	x0, 40576c <msort_with_tmp.part.0+0x244>
  405598:	f100081f 	cmp	x0, #0x2
  40559c:	54000880 	b.eq	4056ac <msort_with_tmp.part.0+0x184>  // b.none
  4055a0:	aa1a03f4 	mov	x20, x26
  4055a4:	f1000c1f 	cmp	x0, #0x3
  4055a8:	540004e1 	b.ne	405644 <msort_with_tmp.part.0+0x11c>  // b.any
  4055ac:	350002a1 	cbnz	w1, 405600 <msort_with_tmp.part.0+0xd8>
  4055b0:	b5000759 	cbnz	x25, 405698 <msort_with_tmp.part.0+0x170>
  4055b4:	f9403ba0 	ldr	x0, [x29, #112]
  4055b8:	a94153f3 	ldp	x19, x20, [sp, #16]
  4055bc:	cb1b0002 	sub	x2, x0, x27
  4055c0:	a94363f7 	ldp	x23, x24, [sp, #48]
  4055c4:	aa1a03e0 	mov	x0, x26
  4055c8:	f94012a1 	ldr	x1, [x21, #32]
  4055cc:	9b167c42 	mul	x2, x2, x22
  4055d0:	a9425bf5 	ldp	x21, x22, [sp, #32]
  4055d4:	a9446bf9 	ldp	x25, x26, [sp, #64]
  4055d8:	a94573fb 	ldp	x27, x28, [sp, #80]
  4055dc:	a8c87bfd 	ldp	x29, x30, [sp], #128
  4055e0:	17ffeb1c 	b	400250 <.plt+0x10>
  4055e4:	f8408780 	ldr	x0, [x28], #8
  4055e8:	d100077b 	sub	x27, x27, #0x1
  4055ec:	f9000260 	str	x0, [x19]
  4055f0:	f100033f 	cmp	x25, #0x0
  4055f4:	91002273 	add	x19, x19, #0x8
  4055f8:	fa401b64 	ccmp	x27, #0x0, #0x4, ne  // ne = any
  4055fc:	54fffda0 	b.eq	4055b0 <msort_with_tmp.part.0+0x88>  // b.none
  405600:	f9400280 	ldr	x0, [x20]
  405604:	aa1703e2 	mov	x2, x23
  405608:	f9400381 	ldr	x1, [x28]
  40560c:	d63f0300 	blr	x24
  405610:	7100001f 	cmp	w0, #0x0
  405614:	54fffe8c 	b.gt	4055e4 <msort_with_tmp.part.0+0xbc>
  405618:	f8408680 	ldr	x0, [x20], #8
  40561c:	d1000739 	sub	x25, x25, #0x1
  405620:	f9000260 	str	x0, [x19]
  405624:	17fffff3 	b	4055f0 <msort_with_tmp.part.0+0xc8>
  405628:	aa1403e1 	mov	x1, x20
  40562c:	aa1303e0 	mov	x0, x19
  405630:	aa1603e2 	mov	x2, x22
  405634:	8b160294 	add	x20, x20, x22
  405638:	9400425a 	bl	415fa0 <__mempcpy>
  40563c:	d1000739 	sub	x25, x25, #0x1
  405640:	aa0003f3 	mov	x19, x0
  405644:	f100033f 	cmp	x25, #0x0
  405648:	aa1703e2 	mov	x2, x23
  40564c:	fa401b64 	ccmp	x27, #0x0, #0x4, ne  // ne = any
  405650:	54fffb00 	b.eq	4055b0 <msort_with_tmp.part.0+0x88>  // b.none
  405654:	aa1c03e1 	mov	x1, x28
  405658:	aa1403e0 	mov	x0, x20
  40565c:	d63f0300 	blr	x24
  405660:	7100001f 	cmp	w0, #0x0
  405664:	54fffe2d 	b.le	405628 <msort_with_tmp.part.0+0x100>
  405668:	aa1c03e1 	mov	x1, x28
  40566c:	aa1603e2 	mov	x2, x22
  405670:	aa1303e0 	mov	x0, x19
  405674:	9400424b 	bl	415fa0 <__mempcpy>
  405678:	d100077b 	sub	x27, x27, #0x1
  40567c:	f100033f 	cmp	x25, #0x0
  405680:	8b16039c 	add	x28, x28, x22
  405684:	aa0003f3 	mov	x19, x0
  405688:	aa1703e2 	mov	x2, x23
  40568c:	fa401b64 	ccmp	x27, #0x0, #0x4, ne  // ne = any
  405690:	54fffe21 	b.ne	405654 <msort_with_tmp.part.0+0x12c>  // b.any
  405694:	b4fff919 	cbz	x25, 4055b4 <msort_with_tmp.part.0+0x8c>
  405698:	9b197ec2 	mul	x2, x22, x25
  40569c:	aa1403e1 	mov	x1, x20
  4056a0:	aa1303e0 	mov	x0, x19
  4056a4:	97ffeaeb 	bl	400250 <.plt+0x10>
  4056a8:	17ffffc3 	b	4055b4 <msort_with_tmp.part.0+0x8c>
  4056ac:	aa1a03f4 	mov	x20, x26
  4056b0:	d2800100 	mov	x0, #0x8                   	// #8
  4056b4:	cb160000 	sub	x0, x0, x22
  4056b8:	f90037a0 	str	x0, [x29, #104]
  4056bc:	d503201f 	nop
  4056c0:	f100033f 	cmp	x25, #0x0
  4056c4:	fa401b64 	ccmp	x27, #0x0, #0x4, ne  // ne = any
  4056c8:	54fff740 	b.eq	4055b0 <msort_with_tmp.part.0+0x88>  // b.none
  4056cc:	8b160264 	add	x4, x19, x22
  4056d0:	f9003fa4 	str	x4, [x29, #120]
  4056d4:	aa1703e2 	mov	x2, x23
  4056d8:	aa1c03e1 	mov	x1, x28
  4056dc:	aa1403e0 	mov	x0, x20
  4056e0:	d63f0300 	blr	x24
  4056e4:	7100001f 	cmp	w0, #0x0
  4056e8:	f9403fa4 	ldr	x4, [x29, #120]
  4056ec:	5400028d 	b.le	40573c <msort_with_tmp.part.0+0x214>
  4056f0:	aa1c03e3 	mov	x3, x28
  4056f4:	d100077b 	sub	x27, x27, #0x1
  4056f8:	8b16039c 	add	x28, x28, x22
  4056fc:	eb04027f 	cmp	x19, x4
  405700:	540001a2 	b.cs	405734 <msort_with_tmp.part.0+0x20c>  // b.hs, b.nlast
  405704:	f94037a0 	ldr	x0, [x29, #104]
  405708:	d28000e1 	mov	x1, #0x7                   	// #7
  40570c:	cb000021 	sub	x1, x1, x0
  405710:	d2800000 	mov	x0, #0x0                   	// #0
  405714:	927df021 	and	x1, x1, #0xfffffffffffffff8
  405718:	91002021 	add	x1, x1, #0x8
  40571c:	d503201f 	nop
  405720:	f8606862 	ldr	x2, [x3, x0]
  405724:	f8206a62 	str	x2, [x19, x0]
  405728:	91002000 	add	x0, x0, #0x8
  40572c:	eb00003f 	cmp	x1, x0
  405730:	54ffff81 	b.ne	405720 <msort_with_tmp.part.0+0x1f8>  // b.any
  405734:	aa0403f3 	mov	x19, x4
  405738:	17ffffe2 	b	4056c0 <msort_with_tmp.part.0+0x198>
  40573c:	aa1403e3 	mov	x3, x20
  405740:	d1000739 	sub	x25, x25, #0x1
  405744:	8b160294 	add	x20, x20, x22
  405748:	17ffffed 	b	4056fc <msort_with_tmp.part.0+0x1d4>
  40574c:	aa1b03e2 	mov	x2, x27
  405750:	aa1c03e1 	mov	x1, x28
  405754:	aa1503e0 	mov	x0, x21
  405758:	97ffff74 	bl	405528 <msort_with_tmp.part.0>
  40575c:	17ffff85 	b	405570 <msort_with_tmp.part.0+0x48>
  405760:	aa1903e2 	mov	x2, x25
  405764:	97ffff71 	bl	405528 <msort_with_tmp.part.0>
  405768:	17ffff80 	b	405568 <msort_with_tmp.part.0+0x40>
  40576c:	aa1a03f4 	mov	x20, x26
  405770:	34fff201 	cbz	w1, 4055b0 <msort_with_tmp.part.0+0x88>
  405774:	aa1c03e1 	mov	x1, x28
  405778:	aa1403e0 	mov	x0, x20
  40577c:	aa1703e2 	mov	x2, x23
  405780:	d63f0300 	blr	x24
  405784:	7100001f 	cmp	w0, #0x0
  405788:	540001ed 	b.le	4057c4 <msort_with_tmp.part.0+0x29c>
  40578c:	d503201f 	nop
  405790:	b8404780 	ldr	w0, [x28], #4
  405794:	d100077b 	sub	x27, x27, #0x1
  405798:	b9000260 	str	w0, [x19]
  40579c:	f100033f 	cmp	x25, #0x0
  4057a0:	91001273 	add	x19, x19, #0x4
  4057a4:	fa401b64 	ccmp	x27, #0x0, #0x4, ne  // ne = any
  4057a8:	54fff040 	b.eq	4055b0 <msort_with_tmp.part.0+0x88>  // b.none
  4057ac:	aa1c03e1 	mov	x1, x28
  4057b0:	aa1403e0 	mov	x0, x20
  4057b4:	aa1703e2 	mov	x2, x23
  4057b8:	d63f0300 	blr	x24
  4057bc:	7100001f 	cmp	w0, #0x0
  4057c0:	54fffe8c 	b.gt	405790 <msort_with_tmp.part.0+0x268>
  4057c4:	b8404680 	ldr	w0, [x20], #4
  4057c8:	d1000739 	sub	x25, x25, #0x1
  4057cc:	b9000260 	str	w0, [x19]
  4057d0:	17fffff3 	b	40579c <msort_with_tmp.part.0+0x274>
  4057d4:	aa1a03f4 	mov	x20, x26
  4057d8:	34ffeec1 	cbz	w1, 4055b0 <msort_with_tmp.part.0+0x88>
  4057dc:	aa1c03e1 	mov	x1, x28
  4057e0:	aa1403e0 	mov	x0, x20
  4057e4:	aa1703e2 	mov	x2, x23
  4057e8:	d63f0300 	blr	x24
  4057ec:	7100001f 	cmp	w0, #0x0
  4057f0:	540001ed 	b.le	40582c <msort_with_tmp.part.0+0x304>
  4057f4:	d503201f 	nop
  4057f8:	f8408780 	ldr	x0, [x28], #8
  4057fc:	d100077b 	sub	x27, x27, #0x1
  405800:	f9000260 	str	x0, [x19]
  405804:	f100033f 	cmp	x25, #0x0
  405808:	91002273 	add	x19, x19, #0x8
  40580c:	fa401b64 	ccmp	x27, #0x0, #0x4, ne  // ne = any
  405810:	54ffed00 	b.eq	4055b0 <msort_with_tmp.part.0+0x88>  // b.none
  405814:	aa1c03e1 	mov	x1, x28
  405818:	aa1403e0 	mov	x0, x20
  40581c:	aa1703e2 	mov	x2, x23
  405820:	d63f0300 	blr	x24
  405824:	7100001f 	cmp	w0, #0x0
  405828:	54fffe8c 	b.gt	4057f8 <msort_with_tmp.part.0+0x2d0>
  40582c:	f8408680 	ldr	x0, [x20], #8
  405830:	d1000739 	sub	x25, x25, #0x1
  405834:	f9000260 	str	x0, [x19]
  405838:	17fffff3 	b	405804 <msort_with_tmp.part.0+0x2dc>
  40583c:	d503201f 	nop

0000000000405840 <__qsort_r>:
  405840:	a9b67bfd 	stp	x29, x30, [sp, #-160]!
  405844:	910003fd 	mov	x29, sp
  405848:	a90363f7 	stp	x23, x24, [sp, #48]
  40584c:	aa0103f8 	mov	x24, x1
  405850:	a90573fb 	stp	x27, x28, [sp, #80]
  405854:	aa0203fc 	mov	x28, x2
  405858:	a9046bf9 	stp	x25, x26, [sp, #64]
  40585c:	b00003d9 	adrp	x25, 47e000 <__FRAME_END__+0x105ac>
  405860:	9128e321 	add	x1, x25, #0xa38
  405864:	a90153f3 	stp	x19, x20, [sp, #16]
  405868:	f9400022 	ldr	x2, [x1]
  40586c:	f9004fa2 	str	x2, [x29, #152]
  405870:	d2800002 	mov	x2, #0x0                   	// #0
  405874:	9b1c7f01 	mul	x1, x24, x28
  405878:	a9025bf5 	stp	x21, x22, [sp, #32]
  40587c:	f100839f 	cmp	x28, #0x20
  405880:	8b181393 	add	x19, x28, x24, lsl #4
  405884:	aa0003f7 	mov	x23, x0
  405888:	9a818273 	csel	x19, x19, x1, hi  // hi = pmore
  40588c:	aa0303f6 	mov	x22, x3
  405890:	aa0403f5 	mov	x21, x4
  405894:	f10ffe7f 	cmp	x19, #0x3ff
  405898:	54000908 	b.hi	4059b8 <__qsort_r+0x178>  // b.pmore
  40589c:	91007a73 	add	x19, x19, #0x1e
  4058a0:	f90037bf 	str	xzr, [x29, #104]
  4058a4:	927cee73 	and	x19, x19, #0xfffffffffffffff0
  4058a8:	cb3363ff 	sub	sp, sp, x19
  4058ac:	910003e0 	mov	x0, sp
  4058b0:	f9004ba0 	str	x0, [x29, #144]
  4058b4:	d2800080 	mov	x0, #0x4                   	// #4
  4058b8:	a90703bc 	stp	x28, x0, [x29, #112]
  4058bc:	a90857b6 	stp	x22, x21, [x29, #128]
  4058c0:	f100839f 	cmp	x28, #0x20
  4058c4:	54000b29 	b.ls	405a28 <__qsort_r+0x1e8>  // b.plast
  4058c8:	f9404ba4 	ldr	x4, [x29, #144]
  4058cc:	d37df301 	lsl	x1, x24, #3
  4058d0:	8b01009b 	add	x27, x4, x1
  4058d4:	8b01037a 	add	x26, x27, x1
  4058d8:	eb1a037f 	cmp	x27, x26
  4058dc:	540011c2 	b.cs	405b14 <__qsort_r+0x2d4>  // b.hs, b.nlast
  4058e0:	aa1b03e2 	mov	x2, x27
  4058e4:	aa1703e0 	mov	x0, x23
  4058e8:	f8008440 	str	x0, [x2], #8
  4058ec:	8b1c0000 	add	x0, x0, x28
  4058f0:	eb02035f 	cmp	x26, x2
  4058f4:	54ffffa8 	b.hi	4058e8 <__qsort_r+0xa8>  // b.pmore
  4058f8:	f9404ba0 	ldr	x0, [x29, #144]
  4058fc:	8b010001 	add	x1, x0, x1
  405900:	d2800102 	mov	x2, #0x8                   	// #8
  405904:	d2800060 	mov	x0, #0x3                   	// #3
  405908:	a90703a2 	stp	x2, x0, [x29, #112]
  40590c:	f100071f 	cmp	x24, #0x1
  405910:	54000e88 	b.hi	405ae0 <__qsort_r+0x2a0>  // b.pmore
  405914:	b40004d8 	cbz	x24, 4059ac <__qsort_r+0x16c>
  405918:	aa1703f5 	mov	x21, x23
  40591c:	d2800016 	mov	x22, #0x0                   	// #0
  405920:	14000005 	b	405934 <__qsort_r+0xf4>
  405924:	910006d6 	add	x22, x22, #0x1
  405928:	8b1c02b5 	add	x21, x21, x28
  40592c:	eb16031f 	cmp	x24, x22
  405930:	540003e0 	b.eq	4059ac <__qsort_r+0x16c>  // b.none
  405934:	f8767b74 	ldr	x20, [x27, x22, lsl #3]
  405938:	eb15029f 	cmp	x20, x21
  40593c:	54ffff40 	b.eq	405924 <__qsort_r+0xe4>  // b.none
  405940:	aa1c03e2 	mov	x2, x28
  405944:	aa1503e1 	mov	x1, x21
  405948:	aa1a03e0 	mov	x0, x26
  40594c:	97ffea41 	bl	400250 <.plt+0x10>
  405950:	aa1503e0 	mov	x0, x21
  405954:	aa1603f3 	mov	x19, x22
  405958:	14000002 	b	405960 <__qsort_r+0x120>
  40595c:	aa0103f4 	mov	x20, x1
  405960:	cb170283 	sub	x3, x20, x23
  405964:	f8337b60 	str	x0, [x27, x19, lsl #3]
  405968:	aa1c03e2 	mov	x2, x28
  40596c:	aa1403e1 	mov	x1, x20
  405970:	9adc0873 	udiv	x19, x3, x28
  405974:	97ffea37 	bl	400250 <.plt+0x10>
  405978:	aa1403e0 	mov	x0, x20
  40597c:	f8737b61 	ldr	x1, [x27, x19, lsl #3]
  405980:	8b130f62 	add	x2, x27, x19, lsl #3
  405984:	eb15003f 	cmp	x1, x21
  405988:	54fffea1 	b.ne	40595c <__qsort_r+0x11c>  // b.any
  40598c:	f9000054 	str	x20, [x2]
  405990:	aa1a03e1 	mov	x1, x26
  405994:	aa1c03e2 	mov	x2, x28
  405998:	910006d6 	add	x22, x22, #0x1
  40599c:	97ffea2d 	bl	400250 <.plt+0x10>
  4059a0:	8b1c02b5 	add	x21, x21, x28
  4059a4:	eb16031f 	cmp	x24, x22
  4059a8:	54fffc61 	b.ne	405934 <__qsort_r+0xf4>  // b.any
  4059ac:	f94037a0 	ldr	x0, [x29, #104]
  4059b0:	940037f0 	bl	413970 <__free>
  4059b4:	14000010 	b	4059f4 <__qsort_r+0x1b4>
  4059b8:	f00003d4 	adrp	x20, 480000 <__progname_full>
  4059bc:	b94faa80 	ldr	w0, [x20, #4008]
  4059c0:	34000640 	cbz	w0, 405a88 <__qsort_r+0x248>
  4059c4:	93407c00 	sxtw	x0, w0
  4059c8:	913ea294 	add	x20, x20, #0xfa8
  4059cc:	9ac00a60 	udiv	x0, x19, x0
